

Microchip Technology PIC LITE Macro Assembler V1.35 build -356382666 
                                                                                               Sun Nov 08 10:42:19 2015

Microchip Technology Omniscient Code Generator v1.35 (Free mode) build 201507080246
     1                           	processor	16F887
     2                           	opt	pw 120
     3                           	opt	lm
     4                           	psect	strings,global,class=STRING,delta=2
     5                           	psect	cinit,global,class=CODE,merge=1,delta=2
     6                           	psect	bssCOMMON,global,class=COMMON,space=1,delta=1
     7                           	psect	bssBANK0,global,class=BANK0,space=1,delta=1
     8                           	psect	cstackCOMMON,global,class=COMMON,space=1,delta=1
     9                           	psect	cstackBANK0,global,class=BANK0,space=1,delta=1
    10                           	psect	maintext,global,class=CODE,split=1,delta=2
    11                           	psect	text1,local,class=CODE,merge=1,delta=2
    12                           	psect	text2,local,class=CODE,merge=1,delta=2
    13                           	psect	text3,local,class=CODE,merge=1,delta=2
    14                           	psect	text4,local,class=CODE,merge=1,delta=2
    15                           	psect	text5,local,class=CODE,merge=1,delta=2
    16                           	psect	text6,local,class=CODE,merge=1,delta=2
    17                           	psect	text7,local,class=CODE,merge=1,delta=2
    18                           	psect	text4_split_1,local,class=CODE,merge=1,delta=2
    19                           	psect	text4_split_2,local,class=CODE,merge=1,delta=2
    20                           	psect	text4_split_3,local,class=CODE,merge=1,delta=2
    21                           	psect	text4_split_4,local,class=CODE,merge=1,delta=2
    22                           	psect	text4_split_5,local,class=CODE,merge=1,delta=2
    23                           	psect	text4_split_6,local,class=CODE,merge=1,delta=2
    24                           	psect	text4_split_7,local,class=CODE,merge=1,delta=2
    25                           	psect	text4_split_8,local,class=CODE,merge=1,delta=2
    26                           	psect	text4_split_9,local,class=CODE,merge=1,delta=2
    27                           	psect	text4_split_10,local,class=CODE,merge=1,delta=2
    28                           	psect	text4_split_11,local,class=CODE,merge=1,delta=2
    29                           	psect	text4_split_12,local,class=CODE,merge=1,delta=2
    30                           	dabs	1,0x7E,2
    31  0000                     	;# 
    32  0001                     	;# 
    33  0002                     	;# 
    34  0003                     	;# 
    35  0004                     	;# 
    36  0005                     	;# 
    37  0006                     	;# 
    38  0007                     	;# 
    39  0008                     	;# 
    40  0009                     	;# 
    41  000A                     	;# 
    42  000B                     	;# 
    43  000C                     	;# 
    44  000D                     	;# 
    45  000E                     	;# 
    46  000E                     	;# 
    47  000F                     	;# 
    48  0010                     	;# 
    49  0011                     	;# 
    50  0012                     	;# 
    51  0013                     	;# 
    52  0014                     	;# 
    53  0015                     	;# 
    54  0015                     	;# 
    55  0016                     	;# 
    56  0017                     	;# 
    57  0018                     	;# 
    58  0019                     	;# 
    59  001A                     	;# 
    60  001B                     	;# 
    61  001B                     	;# 
    62  001C                     	;# 
    63  001D                     	;# 
    64  001E                     	;# 
    65  001F                     	;# 
    66  0081                     	;# 
    67  0085                     	;# 
    68  0086                     	;# 
    69  0087                     	;# 
    70  0088                     	;# 
    71  0089                     	;# 
    72  008C                     	;# 
    73  008D                     	;# 
    74  008E                     	;# 
    75  008F                     	;# 
    76  0090                     	;# 
    77  0091                     	;# 
    78  0092                     	;# 
    79  0093                     	;# 
    80  0093                     	;# 
    81  0093                     	;# 
    82  0094                     	;# 
    83  0095                     	;# 
    84  0096                     	;# 
    85  0097                     	;# 
    86  0098                     	;# 
    87  0099                     	;# 
    88  009A                     	;# 
    89  009B                     	;# 
    90  009C                     	;# 
    91  009D                     	;# 
    92  009E                     	;# 
    93  009F                     	;# 
    94  0105                     	;# 
    95  0107                     	;# 
    96  0108                     	;# 
    97  0109                     	;# 
    98  010C                     	;# 
    99  010C                     	;# 
   100  010D                     	;# 
   101  010E                     	;# 
   102  010F                     	;# 
   103  0185                     	;# 
   104  0187                     	;# 
   105  0188                     	;# 
   106  0189                     	;# 
   107  018C                     	;# 
   108  018D                     	;# 
   109  0000                     	;# 
   110  0001                     	;# 
   111  0002                     	;# 
   112  0003                     	;# 
   113  0004                     	;# 
   114  0005                     	;# 
   115  0006                     	;# 
   116  0007                     	;# 
   117  0008                     	;# 
   118  0009                     	;# 
   119  000A                     	;# 
   120  000B                     	;# 
   121  000C                     	;# 
   122  000D                     	;# 
   123  000E                     	;# 
   124  000E                     	;# 
   125  000F                     	;# 
   126  0010                     	;# 
   127  0011                     	;# 
   128  0012                     	;# 
   129  0013                     	;# 
   130  0014                     	;# 
   131  0015                     	;# 
   132  0015                     	;# 
   133  0016                     	;# 
   134  0017                     	;# 
   135  0018                     	;# 
   136  0019                     	;# 
   137  001A                     	;# 
   138  001B                     	;# 
   139  001B                     	;# 
   140  001C                     	;# 
   141  001D                     	;# 
   142  001E                     	;# 
   143  001F                     	;# 
   144  0081                     	;# 
   145  0085                     	;# 
   146  0086                     	;# 
   147  0087                     	;# 
   148  0088                     	;# 
   149  0089                     	;# 
   150  008C                     	;# 
   151  008D                     	;# 
   152  008E                     	;# 
   153  008F                     	;# 
   154  0090                     	;# 
   155  0091                     	;# 
   156  0092                     	;# 
   157  0093                     	;# 
   158  0093                     	;# 
   159  0093                     	;# 
   160  0094                     	;# 
   161  0095                     	;# 
   162  0096                     	;# 
   163  0097                     	;# 
   164  0098                     	;# 
   165  0099                     	;# 
   166  009A                     	;# 
   167  009B                     	;# 
   168  009C                     	;# 
   169  009D                     	;# 
   170  009E                     	;# 
   171  009F                     	;# 
   172  0105                     	;# 
   173  0107                     	;# 
   174  0108                     	;# 
   175  0109                     	;# 
   176  010C                     	;# 
   177  010C                     	;# 
   178  010D                     	;# 
   179  010E                     	;# 
   180  010F                     	;# 
   181  0185                     	;# 
   182  0187                     	;# 
   183  0188                     	;# 
   184  0189                     	;# 
   185  018C                     	;# 
   186  018D                     	;# 
   187                           
   188                           	psect	strings
   189  0800                     __pstrings:	
   190  0800                     stringtab:	
   191  0800                     __stringtab:	
   192  0800                     stringcode:	
   193                           ;	String table - string pointers are 1 byte each
   194                           
   195  0800                     stringdir:	
   196  0800  3008               	movlw	high stringdir
   197  0801  008A               	movwf	10
   198  0802  0804               	movf	4,w
   199  0803  0A84               	incf	4,f
   200  0804  0782               	addwf	2,f
   201  0805                     __stringbase:	
   202  0805  3400               	retlw	0
   203  0806                     __end_of__stringtab:	
   204  0806                     _d_row0:	
   205  0806  34FF               	retlw	255
   206  0807  34FF               	retlw	255
   207  0808  34FF               	retlw	255
   208  0809  34FF               	retlw	255
   209  080A  34FF               	retlw	255
   210  080B  34FF               	retlw	255
   211  080C  34FF               	retlw	255
   212  080D  34FF               	retlw	255
   213  080E  34FF               	retlw	255
   214  080F  34FF               	retlw	255
   215  0810  34FF               	retlw	255
   216  0811  34FF               	retlw	255
   217  0812  34FF               	retlw	255
   218  0813  34FF               	retlw	255
   219  0814  34FF               	retlw	255
   220  0815  34FF               	retlw	255
   221  0816  34FF               	retlw	255
   222  0817  34FF               	retlw	255
   223  0818  34FF               	retlw	255
   224  0819  34FF               	retlw	255
   225  081A  34FF               	retlw	255
   226  081B                     __end_of_d_row0:	
   227  081B                     _d_row1:	
   228  081B  34C0               	retlw	192
   229  081C  3400               	retlw	0
   230  081D  3400               	retlw	0
   231  081E  3400               	retlw	0
   232  081F  3400               	retlw	0
   233  0820  3400               	retlw	0
   234  0821  3400               	retlw	0
   235  0822  3400               	retlw	0
   236  0823  3400               	retlw	0
   237  0824  3400               	retlw	0
   238  0825  3400               	retlw	0
   239  0826  3400               	retlw	0
   240  0827  3400               	retlw	0
   241  0828  3400               	retlw	0
   242  0829  3400               	retlw	0
   243  082A  3400               	retlw	0
   244  082B  3400               	retlw	0
   245  082C  3400               	retlw	0
   246  082D  3400               	retlw	0
   247  082E  3400               	retlw	0
   248  082F  3403               	retlw	3
   249  0830                     __end_of_d_row1:	
   250  0830                     _d_row2:	
   251  0830  34C0               	retlw	192
   252  0831  3400               	retlw	0
   253  0832  3400               	retlw	0
   254  0833  3400               	retlw	0
   255  0834  3400               	retlw	0
   256  0835  3400               	retlw	0
   257  0836  3400               	retlw	0
   258  0837  34C3               	retlw	195
   259  0838  3436               	retlw	54
   260  0839  3400               	retlw	0
   261  083A  3400               	retlw	0
   262  083B  3400               	retlw	0
   263  083C  3400               	retlw	0
   264  083D  3400               	retlw	0
   265  083E  3400               	retlw	0
   266  083F  3400               	retlw	0
   267  0840  3400               	retlw	0
   268  0841  3400               	retlw	0
   269  0842  3400               	retlw	0
   270  0843  3400               	retlw	0
   271  0844  3403               	retlw	3
   272  0845                     __end_of_d_row2:	
   273  0845                     _d_row3:	
   274  0845  34C0               	retlw	192
   275  0846  3400               	retlw	0
   276  0847  3400               	retlw	0
   277  0848  3400               	retlw	0
   278  0849  3400               	retlw	0
   279  084A  3400               	retlw	0
   280  084B  3400               	retlw	0
   281  084C  34C4               	retlw	196
   282  084D  34AA               	retlw	170
   283  084E  3400               	retlw	0
   284  084F  3400               	retlw	0
   285  0850  3400               	retlw	0
   286  0851  3400               	retlw	0
   287  0852  3400               	retlw	0
   288  0853  3400               	retlw	0
   289  0854  3400               	retlw	0
   290  0855  3400               	retlw	0
   291  0856  3400               	retlw	0
   292  0857  3400               	retlw	0
   293  0858  3400               	retlw	0
   294  0859  3403               	retlw	3
   295  085A                     __end_of_d_row3:	
   296  085A                     _d_row4:	
   297  085A  34C0               	retlw	192
   298  085B  3400               	retlw	0
   299  085C  3400               	retlw	0
   300  085D  3400               	retlw	0
   301  085E  3400               	retlw	0
   302  085F  3400               	retlw	0
   303  0860  3400               	retlw	0
   304  0861  34C7               	retlw	199
   305  0862  34AA               	retlw	170
   306  0863  3400               	retlw	0
   307  0864  3400               	retlw	0
   308  0865  3400               	retlw	0
   309  0866  3400               	retlw	0
   310  0867  3400               	retlw	0
   311  0868  3400               	retlw	0
   312  0869  3400               	retlw	0
   313  086A  3400               	retlw	0
   314  086B  3400               	retlw	0
   315  086C  3400               	retlw	0
   316  086D  3400               	retlw	0
   317  086E  3403               	retlw	3
   318  086F                     __end_of_d_row4:	
   319  086F                     _d_row5:	
   320  086F  34C0               	retlw	192
   321  0870  3400               	retlw	0
   322  0871  3400               	retlw	0
   323  0872  3400               	retlw	0
   324  0873  3400               	retlw	0
   325  0874  3400               	retlw	0
   326  0875  3400               	retlw	0
   327  0876  34F4               	retlw	244
   328  0877  34A2               	retlw	162
   329  0878  3400               	retlw	0
   330  0879  3400               	retlw	0
   331  087A  3400               	retlw	0
   332  087B  3400               	retlw	0
   333  087C  3400               	retlw	0
   334  087D  3400               	retlw	0
   335  087E  3400               	retlw	0
   336  087F  3400               	retlw	0
   337  0880  3400               	retlw	0
   338  0881  3400               	retlw	0
   339  0882  3400               	retlw	0
   340  0883  3403               	retlw	3
   341  0884                     __end_of_d_row5:	
   342  0884                     _d_row6:	
   343  0884  34C0               	retlw	192
   344  0885  3400               	retlw	0
   345  0886  3400               	retlw	0
   346  0887  3400               	retlw	0
   347  0888  3400               	retlw	0
   348  0889  3400               	retlw	0
   349  088A  3400               	retlw	0
   350  088B  3400               	retlw	0
   351  088C  3400               	retlw	0
   352  088D  3400               	retlw	0
   353  088E  3400               	retlw	0
   354  088F  3400               	retlw	0
   355  0890  3400               	retlw	0
   356  0891  3400               	retlw	0
   357  0892  3400               	retlw	0
   358  0893  3400               	retlw	0
   359  0894  3400               	retlw	0
   360  0895  3400               	retlw	0
   361  0896  3400               	retlw	0
   362  0897  3400               	retlw	0
   363  0898  3403               	retlw	3
   364  0899                     __end_of_d_row6:	
   365  0899                     _d_row7:	
   366  0899  34FF               	retlw	255
   367  089A  34FF               	retlw	255
   368  089B  34FF               	retlw	255
   369  089C  34FF               	retlw	255
   370  089D  34FF               	retlw	255
   371  089E  34FF               	retlw	255
   372  089F  34FF               	retlw	255
   373  08A0  34FF               	retlw	255
   374  08A1  34FF               	retlw	255
   375  08A2  34FF               	retlw	255
   376  08A3  34FF               	retlw	255
   377  08A4  34FF               	retlw	255
   378  08A5  34FF               	retlw	255
   379  08A6  34FF               	retlw	255
   380  08A7  34FF               	retlw	255
   381  08A8  34FF               	retlw	255
   382  08A9  34FF               	retlw	255
   383  08AA  34FF               	retlw	255
   384  08AB  34FF               	retlw	255
   385  08AC  34FF               	retlw	255
   386  08AD  34FF               	retlw	255
   387  08AE                     __end_of_d_row7:	
   388  0008                     _PORTD	set	8
   389  0009                     _PORTE	set	9
   390  0042                     _RD2	set	66
   391  0043                     _RD3	set	67
   392  0044                     _RD4	set	68
   393  0045                     _RD5	set	69
   394  0046                     _RD6	set	70
   395  0047                     _RD7	set	71
   396  004A                     _RE2	set	74
   397  0088                     _TRISD	set	136
   398  0089                     _TRISE	set	137
   399                           
   400                           ; #config settings
   401  0000                     
   402                           	psect	cinit
   403  07F6                     start_initialization:	
   404  07F6                     __initialization:	
   405                           
   406                           ; Clear objects allocated to COMMON
   407  07F6  01FB               	clrf	__pbssCOMMON& (0+127)
   408  07F7  01FC               	clrf	(__pbssCOMMON+1)& (0+127)
   409  07F8  01FD               	clrf	(__pbssCOMMON+2)& (0+127)
   410                           
   411                           ; Clear objects allocated to BANK0
   412  07F9  01AD               	clrf	__pbssBANK0& (0+127)
   413  07FA  01AE               	clrf	(__pbssBANK0+1)& (0+127)
   414  07FB  01AF               	clrf	(__pbssBANK0+2)& (0+127)
   415  07FC                     end_of_initialization:	
   416                           ;End of C runtime variable initialization code
   417                           
   418  07FC                     __end_of__initialization:	
   419  07FC  0183               	clrf	3
   420  07FD  160A  118A  2F86   	ljmp	_main	;jump to C main() function
   421                           
   422                           	psect	bssCOMMON
   423  007B                     __pbssCOMMON:	
   424  007B                     _d_column:	
   425  007B                     	ds	3
   426                           
   427                           	psect	bssBANK0
   428  002D                     __pbssBANK0:	
   429  002D                     _line1:	
   430  002D                     	ds	1
   431  002E                     _line2:	
   432  002E                     	ds	1
   433  002F                     _line3:	
   434  002F                     	ds	1
   435                           
   436                           	psect	cstackCOMMON
   437  0070                     __pcstackCOMMON:	
   438  0070                     ?_ds18b20_initialize:	
   439  0070                     ??_ds18b20_initialize:	
   440                           ; 0 bytes @ 0x0
   441                           
   442  0070                     ?_sys_initialize:	
   443                           ; 0 bytes @ 0x0
   444                           
   445  0070                     ??_sys_initialize:	
   446                           ; 0 bytes @ 0x0
   447                           
   448  0070                     ?_data_to_column:	
   449                           ; 0 bytes @ 0x0
   450                           
   451  0070                     ?_data_to_row:	
   452                           ; 0 bytes @ 0x0
   453                           
   454  0070                     ?_select_line:	
   455                           ; 0 bytes @ 0x0
   456                           
   457  0070                     ??_select_line:	
   458                           ; 0 bytes @ 0x0
   459                           
   460  0070                     ?_next_row:	
   461                           ; 0 bytes @ 0x0
   462                           
   463  0070                     ??_next_row:	
   464                           ; 0 bytes @ 0x0
   465                           
   466  0070                     ?_write_line:	
   467                           ; 0 bytes @ 0x0
   468                           
   469  0070                     ?_main:	
   470                           ; 0 bytes @ 0x0
   471                           
   472  0070                     data_to_column@d_col:	
   473                           ; 0 bytes @ 0x0
   474                           
   475                           
   476                           ; 3 bytes @ 0x0
   477  0070                     	ds	2
   478  0072                     select_line@line_number:	
   479                           
   480                           ; 1 bytes @ 0x2
   481  0072                     	ds	1
   482  0073                     ??_data_to_column:	
   483  0073                     select_line@loop:	
   484                           ; 0 bytes @ 0x3
   485                           
   486                           
   487                           ; 1 bytes @ 0x3
   488  0073                     	ds	3
   489  0076                     data_to_column@loop:	
   490                           
   491                           ; 1 bytes @ 0x6
   492  0076                     	ds	1
   493  0077                     data_to_row@mask:	
   494                           
   495                           ; 1 bytes @ 0x7
   496  0077                     	ds	1
   497  0078                     data_to_row@d_row:	
   498                           
   499                           ; 1 bytes @ 0x8
   500  0078                     	ds	1
   501  0079                     ??_write_line:	
   502  0079                     write_line@line_number:	
   503                           ; 0 bytes @ 0x9
   504                           
   505                           
   506                           ; 1 bytes @ 0x9
   507  0079                     	ds	1
   508  007A                     ??_main:	
   509  007A                     main@line_num:	
   510                           ; 0 bytes @ 0xA
   511                           
   512                           
   513                           ; 1 bytes @ 0xA
   514  007A                     	ds	1
   515                           
   516                           	psect	cstackBANK0
   517  0020                     __pcstackBANK0:	
   518  0020                     ??_data_to_row:	
   519                           
   520                           ; 0 bytes @ 0x0
   521  0020                     	ds	13
   522                           
   523                           	psect	maintext
   524  1786                     __pmaintext:	
   525 ;;
   526 ;;Main: autosize = 0, tempsize = 0, incstack = 0, save=0
   527 ;;
   528 ;; *************** function _main *****************
   529 ;; Defined at:
   530 ;;		line 212 in file "led_matrix_ds18b20.c"
   531 ;; Parameters:    Size  Location     Type
   532 ;;		None
   533 ;; Auto vars:     Size  Location     Type
   534 ;;  line_num        1   10[COMMON] unsigned char 
   535 ;; Return value:  Size  Location     Type
   536 ;;		None               void
   537 ;; Registers used:
   538 ;;		wreg, fsr0l, fsr0h, status,2, status,0, pclath, cstack
   539 ;; Tracked objects:
   540 ;;		On entry : B00/0
   541 ;;		On exit  : 0/0
   542 ;;		Unchanged: 0/0
   543 ;; Data sizes:     COMMON   BANK0   BANK1   BANK3   BANK2
   544 ;;      Params:         0       0       0       0       0
   545 ;;      Locals:         1       0       0       0       0
   546 ;;      Temps:          0       0       0       0       0
   547 ;;      Totals:         1       0       0       0       0
   548 ;;Total ram usage:        1 bytes
   549 ;; Hardware stack levels required when called:    3
   550 ;; This function calls:
   551 ;;		_sys_initialize
   552 ;;		_write_line
   553 ;; This function is called by:
   554 ;;		Startup code after reset
   555 ;; This function uses a non-reentrant model
   556 ;;
   557                           
   558                           
   559                           ;psect for function _main
   560  1786                     _main:	
   561                           
   562                           ;led_matrix_ds18b20.c: 213: sys_initialize();
   563                           
   564                           ;incstack = 0
   565                           ; Regs used in _main: [wreg-fsr0h+status,2+status,0+pclath+cstack]
   566  1786  120A  158A  20C0  160A  118A  	fcall	_sys_initialize
   567                           
   568                           ;led_matrix_ds18b20.c: 214: unsigned char line_num = 0;
   569  178B  01FA               	clrf	main@line_num
   570  178C                     l959:	
   571                           ;led_matrix_ds18b20.c: 215: while (1) {
   572                           
   573                           
   574                           ;led_matrix_ds18b20.c: 216: write_line(0);
   575  178C  3000               	movlw	0
   576  178D  120A  158A  20E5  160A  118A  	fcall	_write_line
   577                           
   578                           ;led_matrix_ds18b20.c: 217: write_line(1);
   579  1792  3001               	movlw	1
   580  1793  120A  158A  20E5  160A  118A  	fcall	_write_line
   581                           
   582                           ;led_matrix_ds18b20.c: 218: write_line(2);
   583  1798  3002               	movlw	2
   584  1799  120A  158A  20E5  160A  118A  	fcall	_write_line
   585                           
   586                           ;led_matrix_ds18b20.c: 219: write_line(3);
   587  179E  3003               	movlw	3
   588  179F  120A  158A  20E5  160A  118A  	fcall	_write_line
   589  17A4  2F8C               	goto	l959
   590  17A5                     __end_of_main:	
   591                           
   592                           	psect	text1
   593  08E5                     __ptext1:	
   594 ;; *************** function _write_line *****************
   595 ;; Defined at:
   596 ;;		line 191 in file "led_matrix_ds18b20.c"
   597 ;; Parameters:    Size  Location     Type
   598 ;;  line_number     1    wreg     unsigned char 
   599 ;; Auto vars:     Size  Location     Type
   600 ;;  line_number     1    9[COMMON] unsigned char 
   601 ;; Return value:  Size  Location     Type
   602 ;;		None               void
   603 ;; Registers used:
   604 ;;		wreg, fsr0l, fsr0h, status,2, status,0, pclath, cstack
   605 ;; Tracked objects:
   606 ;;		On entry : 0/0
   607 ;;		On exit  : 0/0
   608 ;;		Unchanged: 0/0
   609 ;; Data sizes:     COMMON   BANK0   BANK1   BANK3   BANK2
   610 ;;      Params:         0       0       0       0       0
   611 ;;      Locals:         1       0       0       0       0
   612 ;;      Temps:          0       0       0       0       0
   613 ;;      Totals:         1       0       0       0       0
   614 ;;Total ram usage:        1 bytes
   615 ;; Hardware stack levels used:    1
   616 ;; Hardware stack levels required when called:    2
   617 ;; This function calls:
   618 ;;		_data_to_row
   619 ;;		_next_row
   620 ;;		_select_line
   621 ;; This function is called by:
   622 ;;		_main
   623 ;; This function uses a non-reentrant model
   624 ;;
   625                           
   626                           
   627                           ;psect for function _write_line
   628  08E5                     _write_line:	
   629                           
   630                           ;incstack = 0
   631                           ; Regs used in _write_line: [wreg-fsr0h+status,2+status,0+pclath+cstack]
   632                           ;write_line@line_number stored from wreg
   633  08E5  00F9               	movwf	write_line@line_number
   634                           
   635                           ;led_matrix_ds18b20.c: 192: select_line(line_number);
   636  08E6  0879               	movf	write_line@line_number,w
   637  08E7  120A  118A  2018  120A  158A  	fcall	_select_line
   638                           
   639                           ;led_matrix_ds18b20.c: 193: data_to_row(d_row0);
   640  08EC  3001               	movlw	(low ((_d_row0-__stringbase)| (0+32768)))& (0+255)
   641  08ED  120A  158A  2469  120A  158A  	fcall	_data_to_row
   642                           
   643                           ;led_matrix_ds18b20.c: 194: next_row();
   644  08F2  120A  118A  200E  120A  158A  	fcall	_next_row
   645                           
   646                           ;led_matrix_ds18b20.c: 195: data_to_row(d_row1);
   647  08F7  3016               	movlw	(low ((_d_row1-__stringbase)| (0+32768)))& (0+255)
   648  08F8  120A  158A  2469  120A  158A  	fcall	_data_to_row
   649                           
   650                           ;led_matrix_ds18b20.c: 196: next_row();
   651  08FD  120A  118A  200E  120A  158A  	fcall	_next_row
   652                           
   653                           ;led_matrix_ds18b20.c: 197: data_to_row(d_row2);
   654  0902  302B               	movlw	(low ((_d_row2-__stringbase)| (0+32768)))& (0+255)
   655  0903  120A  158A  2469  120A  158A  	fcall	_data_to_row
   656                           
   657                           ;led_matrix_ds18b20.c: 198: next_row();
   658  0908  120A  118A  200E  120A  158A  	fcall	_next_row
   659                           
   660                           ;led_matrix_ds18b20.c: 199: data_to_row(d_row3);
   661  090D  3040               	movlw	(low ((_d_row3-__stringbase)| (0+32768)))& (0+255)
   662  090E  120A  158A  2469  120A  158A  	fcall	_data_to_row
   663                           
   664                           ;led_matrix_ds18b20.c: 200: next_row();
   665  0913  120A  118A  200E  120A  158A  	fcall	_next_row
   666                           
   667                           ;led_matrix_ds18b20.c: 201: data_to_row(d_row4);
   668  0918  3055               	movlw	(low ((_d_row4-__stringbase)| (0+32768)))& (0+255)
   669  0919  120A  158A  2469  120A  158A  	fcall	_data_to_row
   670                           
   671                           ;led_matrix_ds18b20.c: 202: next_row();
   672  091E  120A  118A  200E  120A  158A  	fcall	_next_row
   673                           
   674                           ;led_matrix_ds18b20.c: 203: data_to_row(d_row5);
   675  0923  306A               	movlw	(low ((_d_row5-__stringbase)| (0+32768)))& (0+255)
   676  0924  120A  158A  2469  120A  158A  	fcall	_data_to_row
   677                           
   678                           ;led_matrix_ds18b20.c: 204: next_row();
   679  0929  120A  118A  200E  120A  158A  	fcall	_next_row
   680                           
   681                           ;led_matrix_ds18b20.c: 205: data_to_row(d_row6);
   682  092E  307F               	movlw	(low ((_d_row6-__stringbase)| (0+32768)))& (0+255)
   683  092F  120A  158A  2469  120A  158A  	fcall	_data_to_row
   684                           
   685                           ;led_matrix_ds18b20.c: 206: next_row();
   686  0934  120A  118A  200E  120A  158A  	fcall	_next_row
   687                           
   688                           ;led_matrix_ds18b20.c: 207: data_to_row(d_row7);
   689  0939  3094               	movlw	(low ((_d_row7-__stringbase)| (0+32768)))& (0+255)
   690  093A  120A  158A  2469  120A  158A  	fcall	_data_to_row
   691                           
   692                           ;led_matrix_ds18b20.c: 208: next_row();
   693  093F  120A  118A  200E   	fcall	_next_row
   694  0942  0008               	return
   695  0943                     __end_of_write_line:	
   696                           
   697                           	psect	text2
   698  0018                     __ptext2:	
   699 ;; *************** function _select_line *****************
   700 ;; Defined at:
   701 ;;		line 165 in file "led_matrix_ds18b20.c"
   702 ;; Parameters:    Size  Location     Type
   703 ;;  line_number     1    wreg     unsigned char 
   704 ;; Auto vars:     Size  Location     Type
   705 ;;  line_number     1    2[COMMON] unsigned char 
   706 ;;  loop            1    3[COMMON] unsigned char 
   707 ;; Return value:  Size  Location     Type
   708 ;;		None               void
   709 ;; Registers used:
   710 ;;		wreg, status,2, status,0
   711 ;; Tracked objects:
   712 ;;		On entry : 0/0
   713 ;;		On exit  : 0/0
   714 ;;		Unchanged: 0/0
   715 ;; Data sizes:     COMMON   BANK0   BANK1   BANK3   BANK2
   716 ;;      Params:         0       0       0       0       0
   717 ;;      Locals:         2       0       0       0       0
   718 ;;      Temps:          2       0       0       0       0
   719 ;;      Totals:         4       0       0       0       0
   720 ;;Total ram usage:        4 bytes
   721 ;; Hardware stack levels used:    1
   722 ;; This function calls:
   723 ;;		Nothing
   724 ;; This function is called by:
   725 ;;		_write_line
   726 ;; This function uses a non-reentrant model
   727 ;;
   728                           
   729                           
   730                           ;psect for function _select_line
   731  0018                     _select_line:	
   732                           
   733                           ;incstack = 0
   734                           ; Regs used in _select_line: [wreg+status,2+status,0]
   735                           ;select_line@line_number stored from wreg
   736  0018  00F2               	movwf	select_line@line_number
   737                           
   738                           ;led_matrix_ds18b20.c: 166: char loop = line_number * 8;
   739  0019  0872               	movf	select_line@line_number,w
   740  001A  00F0               	movwf	??_select_line
   741  001B  3002               	movlw	2
   742  001C                     u1535:	
   743  001C  1003               	clrc
   744  001D  0DF0               	rlf	??_select_line,f
   745  001E  3EFF               	addlw	-1
   746  001F  1D03               	skipz
   747  0020  281C               	goto	u1535
   748  0021  1003               	clrc
   749  0022  0D70               	rlf	??_select_line,w
   750  0023  00F1               	movwf	??_select_line+1
   751  0024  0871               	movf	??_select_line+1,w
   752  0025  00F3               	movwf	select_line@loop
   753                           
   754                           ;led_matrix_ds18b20.c: 167: RD2 = 1;
   755  0026  1283               	bcf	3,5	;RP0=0, select bank0
   756  0027  1303               	bcf	3,6	;RP1=0, select bank0
   757  0028  1508               	bsf	8,2	;volatile
   758                           
   759                           ;led_matrix_ds18b20.c: 168: RE2 = 1;
   760  0029  1509               	bsf	9,2	;volatile
   761                           
   762                           ;led_matrix_ds18b20.c: 169: _delay((unsigned long)((10)*(8000000/4000000.0)));
   763  002A  3006               	movlw	6
   764  002B  00F0               	movwf	??_select_line
   765  002C                     u3077:	
   766  002C  0BF0               	decfsz	??_select_line,f
   767  002D  282C               	goto	u3077
   768  002E  0000               	nop
   769                           
   770                           ;led_matrix_ds18b20.c: 170: RE2 = 0;
   771  002F  1283               	bcf	3,5	;RP0=0, select bank0
   772  0030  1303               	bcf	3,6	;RP1=0, select bank0
   773  0031  1109               	bcf	9,2	;volatile
   774                           
   775                           ;led_matrix_ds18b20.c: 171: _delay((unsigned long)((10)*(8000000/4000000.0)));
   776  0032  3006               	movlw	6
   777  0033  00F0               	movwf	??_select_line
   778  0034                     u3087:	
   779  0034  0BF0               	decfsz	??_select_line,f
   780  0035  2834               	goto	u3087
   781  0036  0000               	nop
   782  0037                     l705:	
   783                           ;led_matrix_ds18b20.c: 172: while (loop-- > 0) {
   784                           
   785  0037  3001               	movlw	1
   786  0038  02F3               	subwf	select_line@loop,f
   787  0039  0A73               	incf	select_line@loop,w
   788  003A  1903               	btfsc	3,2
   789  003B  0008               	return
   790                           
   791                           ;led_matrix_ds18b20.c: 173: RD2 = 0;
   792  003C  1283               	bcf	3,5	;RP0=0, select bank0
   793  003D  1303               	bcf	3,6	;RP1=0, select bank0
   794  003E  1108               	bcf	8,2	;volatile
   795                           
   796                           ;led_matrix_ds18b20.c: 174: _delay((unsigned long)((1)*(8000000/4000000.0)));
   797  003F  2840               	nop2	;2 cycle nop
   798                           
   799                           ;led_matrix_ds18b20.c: 175: RD2 = 1;
   800  0040  1283               	bcf	3,5	;RP0=0, select bank0
   801  0041  1303               	bcf	3,6	;RP1=0, select bank0
   802  0042  1508               	bsf	8,2	;volatile
   803                           
   804                           ;led_matrix_ds18b20.c: 176: _delay((unsigned long)((1)*(8000000/4000000.0)));
   805  0043  2844               	nop2	;2 cycle nop
   806  0044  2837               	goto	l705
   807  0045                     __end_of_select_line:	
   808                           
   809                           	psect	text3
   810  000E                     __ptext3:	
   811 ;; *************** function _next_row *****************
   812 ;; Defined at:
   813 ;;		line 180 in file "led_matrix_ds18b20.c"
   814 ;; Parameters:    Size  Location     Type
   815 ;;		None
   816 ;; Auto vars:     Size  Location     Type
   817 ;;		None
   818 ;; Return value:  Size  Location     Type
   819 ;;		None               void
   820 ;; Registers used:
   821 ;;		None
   822 ;; Tracked objects:
   823 ;;		On entry : 0/0
   824 ;;		On exit  : 0/0
   825 ;;		Unchanged: 0/0
   826 ;; Data sizes:     COMMON   BANK0   BANK1   BANK3   BANK2
   827 ;;      Params:         0       0       0       0       0
   828 ;;      Locals:         0       0       0       0       0
   829 ;;      Temps:          0       0       0       0       0
   830 ;;      Totals:         0       0       0       0       0
   831 ;;Total ram usage:        0 bytes
   832 ;; Hardware stack levels used:    1
   833 ;; This function calls:
   834 ;;		Nothing
   835 ;; This function is called by:
   836 ;;		_write_line
   837 ;; This function uses a non-reentrant model
   838 ;;
   839                           
   840                           
   841                           ;psect for function _next_row
   842  000E                     _next_row:	
   843                           
   844                           ;led_matrix_ds18b20.c: 181: RD3 = 1;
   845                           
   846                           ;incstack = 0
   847                           ; Regs used in _next_row: []
   848  000E  1283               	bcf	3,5	;RP0=0, select bank0
   849  000F  1303               	bcf	3,6	;RP1=0, select bank0
   850  0010  1588               	bsf	8,3	;volatile
   851                           
   852                           ;led_matrix_ds18b20.c: 182: RD2 = 0;
   853  0011  1108               	bcf	8,2	;volatile
   854                           
   855                           ;led_matrix_ds18b20.c: 183: _delay((unsigned long)((1)*(8000000/4000000.0)));
   856  0012  2813               	nop2	;2 cycle nop
   857                           
   858                           ;led_matrix_ds18b20.c: 184: RD2 = 1;
   859  0013  1283               	bcf	3,5	;RP0=0, select bank0
   860  0014  1303               	bcf	3,6	;RP1=0, select bank0
   861  0015  1508               	bsf	8,2	;volatile
   862                           
   863                           ;led_matrix_ds18b20.c: 185: _delay((unsigned long)((1)*(8000000/4000000.0)));
   864  0016  2817               	nop2	;2 cycle nop
   865  0017  0008               	return
   866  0018                     __end_of_next_row:	
   867                           
   868                           	psect	text4
   869  0C69                     __ptext4:	
   870 ;; *************** function _data_to_row *****************
   871 ;; Defined at:
   872 ;;		line 41 in file "led_matrix_ds18b20.c"
   873 ;; Parameters:    Size  Location     Type
   874 ;;  d_row           1    wreg     PTR const unsigned char 
   875 ;;		 -> d_row7(21), d_row6(21), d_row5(21), d_row4(21), 
   876 ;;		 -> d_row3(21), d_row2(21), d_row1(21), d_row0(21), 
   877 ;; Auto vars:     Size  Location     Type
   878 ;;  d_row           1    8[COMMON] PTR const unsigned char 
   879 ;;		 -> d_row7(21), d_row6(21), d_row5(21), d_row4(21), 
   880 ;;		 -> d_row3(21), d_row2(21), d_row1(21), d_row0(21), 
   881 ;;  mask            1    7[COMMON] unsigned char 
   882 ;; Return value:  Size  Location     Type
   883 ;;		None               void
   884 ;; Registers used:
   885 ;;		wreg, fsr0l, fsr0h, status,2, status,0, pclath, cstack
   886 ;; Tracked objects:
   887 ;;		On entry : 0/0
   888 ;;		On exit  : 0/0
   889 ;;		Unchanged: 0/0
   890 ;; Data sizes:     COMMON   BANK0   BANK1   BANK3   BANK2
   891 ;;      Params:         0       0       0       0       0
   892 ;;      Locals:         2       0       0       0       0
   893 ;;      Temps:          0      13       0       0       0
   894 ;;      Totals:         2      13       0       0       0
   895 ;;Total ram usage:       15 bytes
   896 ;; Hardware stack levels used:    1
   897 ;; Hardware stack levels required when called:    1
   898 ;; This function calls:
   899 ;;		_data_to_column
   900 ;; This function is called by:
   901 ;;		_write_line
   902 ;; This function uses a non-reentrant model
   903 ;;
   904                           
   905                           
   906                           ;psect for function _data_to_row
   907  0C69                     _data_to_row:	
   908                           
   909                           ;incstack = 0
   910                           ; Regs used in _data_to_row: [wreg-fsr0h+status,2+status,0+pclath+cstack]
   911                           ;data_to_row@d_row stored from wreg
   912  0C69  00F8               	movwf	data_to_row@d_row
   913                           
   914                           ;led_matrix_ds18b20.c: 42: RD7 = 0;
   915  0C6A  1283               	bcf	3,5	;RP0=0, select bank0
   916  0C6B  1303               	bcf	3,6	;RP1=0, select bank0
   917  0C6C  1388               	bcf	8,7	;volatile
   918                           
   919                           ;led_matrix_ds18b20.c: 43: _delay((unsigned long)((10)*(8000000/4000000.0)));
   920  0C6D  3006               	movlw	6
   921  0C6E  00A0               	movwf	??_data_to_row
   922  0C6F                     u3097:	
   923  0C6F  0BA0               	decfsz	??_data_to_row,f
   924  0C70  2C6F               	goto	u3097
   925  0C71  0000               	nop
   926                           
   927                           ;led_matrix_ds18b20.c: 44: RD7 = 1;
   928  0C72  1283               	bcf	3,5	;RP0=0, select bank0
   929  0C73  1303               	bcf	3,6	;RP1=0, select bank0
   930  0C74  1788               	bsf	8,7	;volatile
   931                           
   932                           ;led_matrix_ds18b20.c: 63: unsigned char mask = 0x80;
   933  0C75  3080               	movlw	128
   934  0C76  00A0               	movwf	??_data_to_row
   935  0C77  0820               	movf	??_data_to_row,w
   936  0C78  00F7               	movwf	data_to_row@mask
   937                           
   938                           ;led_matrix_ds18b20.c: 64: line3 = ((d_row[20] & mask) >> 1) + ((d_row[19] & mask) >> 2)
      +                           + ((d_row[18] & mask) >> 3) +
   939                           ;led_matrix_ds18b20.c: 65: ((d_row[17] & mask) >> 4) + ((d_row[16] & mask) >> 5) + ((d_r
      +                          ow[15] & mask) >> 6) + ((d_row[14] & mask) >> 7);
   940  0C79  0878               	movf	data_to_row@d_row,w
   941  0C7A  3E14               	addlw	20
   942  0C7B  0084               	movwf	4
   943  0C7C  120A  158A  2000  120A  158A  	fcall	stringdir
   944  0C81  0577               	andwf	data_to_row@mask,w
   945  0C82  00A0               	movwf	??_data_to_row
   946  0C83  3001               	movlw	1
   947  0C84                     u1615:	
   948  0C84  1003               	clrc
   949  0C85  0CA0               	rrf	??_data_to_row,f
   950  0C86  3EFF               	addlw	-1
   951  0C87  1D03               	skipz
   952  0C88  2C84               	goto	u1615
   953  0C89  0878               	movf	data_to_row@d_row,w
   954  0C8A  3E13               	addlw	19
   955  0C8B  0084               	movwf	4
   956  0C8C  120A  158A  2000  120A  158A  	fcall	stringdir
   957  0C91  0577               	andwf	data_to_row@mask,w
   958  0C92  00A1               	movwf	??_data_to_row+1
   959  0C93  3002               	movlw	2
   960  0C94                     u1625:	
   961  0C94  1003               	clrc
   962  0C95  0CA1               	rrf	??_data_to_row+1,f
   963  0C96  3EFF               	addlw	-1
   964  0C97  1D03               	skipz
   965  0C98  2C94               	goto	u1625
   966  0C99  0821               	movf	??_data_to_row+1,w
   967  0C9A  0720               	addwf	??_data_to_row,w
   968  0C9B  00A2               	movwf	??_data_to_row+2
   969  0C9C  0878               	movf	data_to_row@d_row,w
   970  0C9D  3E12               	addlw	18
   971  0C9E  0084               	movwf	4
   972  0C9F  120A  158A  2000  120A  158A  	fcall	stringdir
   973  0CA4  0577               	andwf	data_to_row@mask,w
   974  0CA5  00A3               	movwf	??_data_to_row+3
   975  0CA6  3003               	movlw	3
   976  0CA7                     u1635:	
   977  0CA7  1003               	clrc
   978  0CA8  0CA3               	rrf	??_data_to_row+3,f
   979  0CA9  3EFF               	addlw	-1
   980  0CAA  1D03               	skipz
   981  0CAB  2CA7               	goto	u1635
   982  0CAC  0823               	movf	??_data_to_row+3,w
   983  0CAD  0722               	addwf	??_data_to_row+2,w
   984  0CAE  00A4               	movwf	??_data_to_row+4
   985  0CAF  0878               	movf	data_to_row@d_row,w
   986  0CB0  3E11               	addlw	17
   987  0CB1  0084               	movwf	4
   988  0CB2  120A  158A  2000  120A  158A  	fcall	stringdir
   989  0CB7  0577               	andwf	data_to_row@mask,w
   990  0CB8  00A5               	movwf	??_data_to_row+5
   991  0CB9  3004               	movlw	4
   992  0CBA                     u1645:	
   993  0CBA  1003               	clrc
   994  0CBB  0CA5               	rrf	??_data_to_row+5,f
   995  0CBC  3EFF               	addlw	-1
   996  0CBD  1D03               	skipz
   997  0CBE  2CBA               	goto	u1645
   998  0CBF  0825               	movf	??_data_to_row+5,w
   999  0CC0  0724               	addwf	??_data_to_row+4,w
  1000  0CC1  00A6               	movwf	??_data_to_row+6
  1001  0CC2  0878               	movf	data_to_row@d_row,w
  1002  0CC3  3E10               	addlw	16
  1003  0CC4  0084               	movwf	4
  1004  0CC5  120A  158A  2000  120A  158A  	fcall	stringdir
  1005  0CCA  0577               	andwf	data_to_row@mask,w
  1006  0CCB  00A7               	movwf	??_data_to_row+7
  1007  0CCC  3005               	movlw	5
  1008  0CCD                     u1655:	
  1009  0CCD  1003               	clrc
  1010  0CCE  0CA7               	rrf	??_data_to_row+7,f
  1011  0CCF  3EFF               	addlw	-1
  1012  0CD0  1D03               	skipz
  1013  0CD1  2CCD               	goto	u1655
  1014  0CD2  0827               	movf	??_data_to_row+7,w
  1015  0CD3  0726               	addwf	??_data_to_row+6,w
  1016  0CD4  00A8               	movwf	??_data_to_row+8
  1017  0CD5  0878               	movf	data_to_row@d_row,w
  1018  0CD6  3E0F               	addlw	15
  1019  0CD7  0084               	movwf	4
  1020  0CD8  120A  158A  2000  120A  158A  	fcall	stringdir
  1021  0CDD  0577               	andwf	data_to_row@mask,w
  1022  0CDE  00A9               	movwf	??_data_to_row+9
  1023  0CDF  3006               	movlw	6
  1024  0CE0                     u1665:	
  1025  0CE0  1003               	clrc
  1026  0CE1  0CA9               	rrf	??_data_to_row+9,f
  1027  0CE2  3EFF               	addlw	-1
  1028  0CE3  1D03               	skipz
  1029  0CE4  2CE0               	goto	u1665
  1030  0CE5  0829               	movf	??_data_to_row+9,w
  1031  0CE6  0728               	addwf	??_data_to_row+8,w
  1032  0CE7  00AA               	movwf	??_data_to_row+10
  1033  0CE8  0878               	movf	data_to_row@d_row,w
  1034  0CE9  3E0E               	addlw	14
  1035  0CEA  0084               	movwf	4
  1036  0CEB  120A  158A  2000   	fcall	stringdir
  1037  0CEE  0577               	andwf	data_to_row@mask,w
  1038  0CEF  120A  158A  29C7   	ljmp	L1
  1039                           
  1040                           	psect	text5
  1041  17A5                     __ptext5:	
  1042 ;; *************** function _data_to_column *****************
  1043 ;; Defined at:
  1044 ;;		line 15 in file "led_matrix_ds18b20.c"
  1045 ;; Parameters:    Size  Location     Type
  1046 ;;  d_col           3    0[COMMON] unsigned um
  1047 ;; Auto vars:     Size  Location     Type
  1048 ;;  loop            1    6[COMMON] unsigned char 
  1049 ;; Return value:  Size  Location     Type
  1050 ;;		None               void
  1051 ;; Registers used:
  1052 ;;		wreg, status,2, status,0
  1053 ;; Tracked objects:
  1054 ;;		On entry : 0/0
  1055 ;;		On exit  : 0/0
  1056 ;;		Unchanged: 0/0
  1057 ;; Data sizes:     COMMON   BANK0   BANK1   BANK3   BANK2
  1058 ;;      Params:         3       0       0       0       0
  1059 ;;      Locals:         1       0       0       0       0
  1060 ;;      Temps:          3       0       0       0       0
  1061 ;;      Totals:         7       0       0       0       0
  1062 ;;Total ram usage:        7 bytes
  1063 ;; Hardware stack levels used:    1
  1064 ;; This function calls:
  1065 ;;		Nothing
  1066 ;; This function is called by:
  1067 ;;		_data_to_row
  1068 ;; This function uses a non-reentrant model
  1069 ;;
  1070                           
  1071                           
  1072                           ;psect for function _data_to_column
  1073  17A5                     _data_to_column:	
  1074                           
  1075                           ;led_matrix_ds18b20.c: 16: char loop = 23;
  1076                           
  1077                           ;incstack = 0
  1078                           ; Regs used in _data_to_column: [wreg+status,2+status,0]
  1079  17A5  3017               	movlw	23
  1080  17A6  00F3               	movwf	??_data_to_column
  1081  17A7  0873               	movf	??_data_to_column,w
  1082  17A8  00F6               	movwf	data_to_column@loop
  1083  17A9                     l44:	
  1084                           ;led_matrix_ds18b20.c: 17: while(loop > 0) {
  1085                           
  1086  17A9  0876               	movf	data_to_column@loop,w
  1087  17AA  1903               	btfsc	3,2
  1088  17AB  2FDA               	goto	l46
  1089                           
  1090                           ;led_matrix_ds18b20.c: 18: RD4 = ((d_col >> loop) & 1);
  1091  17AC  0870               	movf	data_to_column@d_col,w
  1092  17AD  00F3               	movwf	??_data_to_column
  1093  17AE  0871               	movf	data_to_column@d_col+1,w
  1094  17AF  00F4               	movwf	??_data_to_column+1
  1095  17B0  0872               	movf	data_to_column@d_col+2,w
  1096  17B1  00F5               	movwf	??_data_to_column+2
  1097  17B2  0A76               	incf	data_to_column@loop,w
  1098  17B3  2FB8               	goto	u1550
  1099  17B4                     u1555:	
  1100  17B4  1003               	clrc
  1101  17B5  0CF5               	rrf	??_data_to_column+2,f
  1102  17B6  0CF4               	rrf	??_data_to_column+1,f
  1103  17B7  0CF3               	rrf	??_data_to_column,f
  1104  17B8                     u1550:	
  1105  17B8  3EFF               	addlw	-1
  1106  17B9  1D03               	skipz
  1107  17BA  2FB4               	goto	u1555
  1108  17BB  1C73               	btfss	??_data_to_column,0
  1109  17BC  2FC1               	goto	u1560
  1110  17BD  1283               	bcf	3,5	;RP0=0, select bank0
  1111  17BE  1303               	bcf	3,6	;RP1=0, select bank0
  1112  17BF  1608               	bsf	8,4	;volatile
  1113  17C0  2FC4               	goto	l777
  1114  17C1                     u1560:	
  1115  17C1  1283               	bcf	3,5	;RP0=0, select bank0
  1116  17C2  1303               	bcf	3,6	;RP1=0, select bank0
  1117  17C3  1208               	bcf	8,4	;volatile
  1118  17C4                     l777:	
  1119                           
  1120                           ;led_matrix_ds18b20.c: 19: _delay(5);
  1121  17C4  2FC5               	nop2	;2 cycle nop
  1122  17C5  2FC6               	nop2	;2 cycle nop
  1123  17C6  0000               	nop
  1124                           
  1125                           ;led_matrix_ds18b20.c: 20: RD5 = 1;
  1126  17C7  1283               	bcf	3,5	;RP0=0, select bank0
  1127  17C8  1303               	bcf	3,6	;RP1=0, select bank0
  1128  17C9  1688               	bsf	8,5	;volatile
  1129                           
  1130                           ;led_matrix_ds18b20.c: 21: _delay((unsigned long)((10)*(8000000/4000000.0)));
  1131  17CA  3006               	movlw	6
  1132  17CB  00F3               	movwf	??_data_to_column
  1133  17CC                     u3107:	
  1134  17CC  0BF3               	decfsz	??_data_to_column,f
  1135  17CD  2FCC               	goto	u3107
  1136  17CE  0000               	nop
  1137                           
  1138                           ;led_matrix_ds18b20.c: 22: RD5 = 0;
  1139  17CF  1283               	bcf	3,5	;RP0=0, select bank0
  1140  17D0  1303               	bcf	3,6	;RP1=0, select bank0
  1141  17D1  1288               	bcf	8,5	;volatile
  1142                           
  1143                           ;led_matrix_ds18b20.c: 23: _delay((unsigned long)((10)*(8000000/4000000.0)));
  1144  17D2  3006               	movlw	6
  1145  17D3  00F3               	movwf	??_data_to_column
  1146  17D4                     u3117:	
  1147  17D4  0BF3               	decfsz	??_data_to_column,f
  1148  17D5  2FD4               	goto	u3117
  1149  17D6  0000               	nop
  1150                           
  1151                           ;led_matrix_ds18b20.c: 24: loop--;
  1152  17D7  3001               	movlw	1
  1153  17D8  02F6               	subwf	data_to_column@loop,f
  1154  17D9  2FA9               	goto	l44
  1155  17DA                     l46:	
  1156                           
  1157                           ;led_matrix_ds18b20.c: 25: }
  1158                           ;led_matrix_ds18b20.c: 26: RD4 = d_col & 1;
  1159  17DA  1C70               	btfss	data_to_column@d_col,0
  1160  17DB  2FE0               	goto	u1590
  1161  17DC  1283               	bcf	3,5	;RP0=0, select bank0
  1162  17DD  1303               	bcf	3,6	;RP1=0, select bank0
  1163  17DE  1608               	bsf	8,4	;volatile
  1164  17DF  2FE3               	goto	u1604
  1165  17E0                     u1590:	
  1166  17E0  1283               	bcf	3,5	;RP0=0, select bank0
  1167  17E1  1303               	bcf	3,6	;RP1=0, select bank0
  1168  17E2  1208               	bcf	8,4	;volatile
  1169  17E3                     u1604:	
  1170                           
  1171                           ;led_matrix_ds18b20.c: 27: _delay(5);
  1172  17E3  2FE4               	nop2	;2 cycle nop
  1173  17E4  2FE5               	nop2	;2 cycle nop
  1174  17E5  0000               	nop
  1175                           
  1176                           ;led_matrix_ds18b20.c: 28: RD5 = 1;
  1177  17E6  1283               	bcf	3,5	;RP0=0, select bank0
  1178  17E7  1303               	bcf	3,6	;RP1=0, select bank0
  1179  17E8  1688               	bsf	8,5	;volatile
  1180                           
  1181                           ;led_matrix_ds18b20.c: 29: _delay((unsigned long)((10)*(8000000/4000000.0)));
  1182  17E9  3006               	movlw	6
  1183  17EA  00F3               	movwf	??_data_to_column
  1184  17EB                     u3127:	
  1185  17EB  0BF3               	decfsz	??_data_to_column,f
  1186  17EC  2FEB               	goto	u3127
  1187  17ED  0000               	nop
  1188                           
  1189                           ;led_matrix_ds18b20.c: 30: RD5 = 0;
  1190  17EE  1283               	bcf	3,5	;RP0=0, select bank0
  1191  17EF  1303               	bcf	3,6	;RP1=0, select bank0
  1192  17F0  1288               	bcf	8,5	;volatile
  1193                           
  1194                           ;led_matrix_ds18b20.c: 32: _delay(5);
  1195  17F1  2FF2               	nop2	;2 cycle nop
  1196  17F2  2FF3               	nop2	;2 cycle nop
  1197  17F3  0000               	nop
  1198                           
  1199                           ;led_matrix_ds18b20.c: 34: RD6 = 1;
  1200  17F4  1283               	bcf	3,5	;RP0=0, select bank0
  1201  17F5  1303               	bcf	3,6	;RP1=0, select bank0
  1202  17F6  1708               	bsf	8,6	;volatile
  1203                           
  1204                           ;led_matrix_ds18b20.c: 35: _delay((unsigned long)((10)*(8000000/4000000.0)));
  1205  17F7  3006               	movlw	6
  1206  17F8  00F3               	movwf	??_data_to_column
  1207  17F9                     u3137:	
  1208  17F9  0BF3               	decfsz	??_data_to_column,f
  1209  17FA  2FF9               	goto	u3137
  1210  17FB  0000               	nop
  1211                           
  1212                           ;led_matrix_ds18b20.c: 36: RD6 = 0;
  1213  17FC  1283               	bcf	3,5	;RP0=0, select bank0
  1214  17FD  1303               	bcf	3,6	;RP1=0, select bank0
  1215  17FE  1308               	bcf	8,6	;volatile
  1216  17FF  0008               	return
  1217  1800                     __end_of_data_to_column:	
  1218                           
  1219                           	psect	text6
  1220  08C0                     __ptext6:	
  1221 ;; *************** function _sys_initialize *****************
  1222 ;; Defined at:
  1223 ;;		line 3 in file "led_matrix_ds18b20.c"
  1224 ;; Parameters:    Size  Location     Type
  1225 ;;		None
  1226 ;; Auto vars:     Size  Location     Type
  1227 ;;		None
  1228 ;; Return value:  Size  Location     Type
  1229 ;;		None               void
  1230 ;; Registers used:
  1231 ;;		wreg, status,2, status,0, pclath, cstack
  1232 ;; Tracked objects:
  1233 ;;		On entry : 0/0
  1234 ;;		On exit  : 0/0
  1235 ;;		Unchanged: 0/0
  1236 ;; Data sizes:     COMMON   BANK0   BANK1   BANK3   BANK2
  1237 ;;      Params:         0       0       0       0       0
  1238 ;;      Locals:         0       0       0       0       0
  1239 ;;      Temps:          2       0       0       0       0
  1240 ;;      Totals:         2       0       0       0       0
  1241 ;;Total ram usage:        2 bytes
  1242 ;; Hardware stack levels used:    1
  1243 ;; Hardware stack levels required when called:    1
  1244 ;; This function calls:
  1245 ;;		_ds18b20_initialize
  1246 ;; This function is called by:
  1247 ;;		_main
  1248 ;; This function uses a non-reentrant model
  1249 ;;
  1250                           
  1251                           
  1252                           ;psect for function _sys_initialize
  1253  08C0                     _sys_initialize:	
  1254                           
  1255                           ;led_matrix_ds18b20.c: 4: TRISD = 0b00000011;
  1256                           
  1257                           ;incstack = 0
  1258                           ; Regs used in _sys_initialize: [wreg+status,2+status,0+pclath+cstack]
  1259  08C0  3003               	movlw	3
  1260  08C1  1683               	bsf	3,5	;RP0=1, select bank1
  1261  08C2  1303               	bcf	3,6	;RP1=0, select bank1
  1262  08C3  0088               	movwf	8	;volatile
  1263                           
  1264                           ;led_matrix_ds18b20.c: 5: PORTD = 0;
  1265  08C4  1283               	bcf	3,5	;RP0=0, select bank0
  1266  08C5  1303               	bcf	3,6	;RP1=0, select bank0
  1267  08C6  0188               	clrf	8	;volatile
  1268                           
  1269                           ;led_matrix_ds18b20.c: 6: RD7 = 0;
  1270  08C7  1388               	bcf	8,7	;volatile
  1271                           
  1272                           ;led_matrix_ds18b20.c: 7: RD2 = 1;
  1273  08C8  1508               	bsf	8,2	;volatile
  1274                           
  1275                           ;led_matrix_ds18b20.c: 8: RD3 = 1;
  1276  08C9  1588               	bsf	8,3	;volatile
  1277                           
  1278                           ;led_matrix_ds18b20.c: 9: _delay((unsigned long)((5)*(8000000/4000.0)));
  1279  08CA  300D               	movlw	13
  1280  08CB  00F1               	movwf	??_sys_initialize+1
  1281  08CC  30FB               	movlw	251
  1282  08CD  00F0               	movwf	??_sys_initialize
  1283  08CE                     u3147:	
  1284  08CE  0BF0               	decfsz	??_sys_initialize,f
  1285  08CF  28CE               	goto	u3147
  1286  08D0  0BF1               	decfsz	??_sys_initialize+1,f
  1287  08D1  28CE               	goto	u3147
  1288  08D2  28D3               	nop2
  1289                           
  1290                           ;led_matrix_ds18b20.c: 10: RD7 = 1;
  1291  08D3  1283               	bcf	3,5	;RP0=0, select bank0
  1292  08D4  1303               	bcf	3,6	;RP1=0, select bank0
  1293  08D5  1788               	bsf	8,7	;volatile
  1294                           
  1295                           ;led_matrix_ds18b20.c: 11: ds18b20_initialize();
  1296  08D6  120A  118A  2007  120A  158A  	fcall	_ds18b20_initialize
  1297                           
  1298                           ;led_matrix_ds18b20.c: 12: _delay((unsigned long)((5)*(8000000/4000.0)));
  1299  08DB  300D               	movlw	13
  1300  08DC  00F1               	movwf	??_sys_initialize+1
  1301  08DD  30FB               	movlw	251
  1302  08DE  00F0               	movwf	??_sys_initialize
  1303  08DF                     u3157:	
  1304  08DF  0BF0               	decfsz	??_sys_initialize,f
  1305  08E0  28DF               	goto	u3157
  1306  08E1  0BF1               	decfsz	??_sys_initialize+1,f
  1307  08E2  28DF               	goto	u3157
  1308  08E3  28E4               	nop2
  1309  08E4  0008               	return
  1310  08E5                     __end_of_sys_initialize:	
  1311                           
  1312                           	psect	text7
  1313  0007                     __ptext7:	
  1314 ;; *************** function _ds18b20_initialize *****************
  1315 ;; Defined at:
  1316 ;;		line 4 in file "myds18b20.c"
  1317 ;; Parameters:    Size  Location     Type
  1318 ;;		None
  1319 ;; Auto vars:     Size  Location     Type
  1320 ;;		None
  1321 ;; Return value:  Size  Location     Type
  1322 ;;		None               void
  1323 ;; Registers used:
  1324 ;;		status,2
  1325 ;; Tracked objects:
  1326 ;;		On entry : 0/0
  1327 ;;		On exit  : 0/0
  1328 ;;		Unchanged: 0/0
  1329 ;; Data sizes:     COMMON   BANK0   BANK1   BANK3   BANK2
  1330 ;;      Params:         0       0       0       0       0
  1331 ;;      Locals:         0       0       0       0       0
  1332 ;;      Temps:          0       0       0       0       0
  1333 ;;      Totals:         0       0       0       0       0
  1334 ;;Total ram usage:        0 bytes
  1335 ;; Hardware stack levels used:    1
  1336 ;; This function calls:
  1337 ;;		Nothing
  1338 ;; This function is called by:
  1339 ;;		_sys_initialize
  1340 ;; This function uses a non-reentrant model
  1341 ;;
  1342                           
  1343                           
  1344                           ;psect for function _ds18b20_initialize
  1345  0007                     _ds18b20_initialize:	
  1346                           
  1347                           ;myds18b20.c: 5: TRISE = 0;
  1348                           
  1349                           ;incstack = 0
  1350                           ; Regs used in _ds18b20_initialize: [status,2]
  1351  0007  1683               	bsf	3,5	;RP0=1, select bank1
  1352  0008  1303               	bcf	3,6	;RP1=0, select bank1
  1353  0009  0189               	clrf	9	;volatile
  1354                           
  1355                           ;myds18b20.c: 6: PORTE = 0;
  1356  000A  1283               	bcf	3,5	;RP0=0, select bank0
  1357  000B  1303               	bcf	3,6	;RP1=0, select bank0
  1358  000C  0189               	clrf	9	;volatile
  1359  000D  0008               	return
  1360  000E                     __end_of_ds18b20_initialize:	
  1361  007E                     btemp	set	126	;btemp
  1362  007E                     wtemp	set	126
  1363  007E                     wtemp0	set	126
  1364  0080                     wtemp1	set	128
  1365  0082                     wtemp2	set	130
  1366  0084                     wtemp3	set	132
  1367  0086                     wtemp4	set	134
  1368  0088                     wtemp5	set	136
  1369  007F                     wtemp6	set	127
  1370  007E                     ttemp	set	126
  1371  007E                     ttemp0	set	126
  1372  0081                     ttemp1	set	129
  1373  0084                     ttemp2	set	132
  1374  0087                     ttemp3	set	135
  1375  007F                     ttemp4	set	127
  1376  007E                     ltemp	set	126
  1377  007E                     ltemp0	set	126
  1378  0082                     ltemp1	set	130
  1379  0086                     ltemp2	set	134
  1380  0080                     ltemp3	set	128
  1381                           
  1382                           	psect	text4_split_1
  1383  09C7                     L1:	
  1384  09C7  00AB               	movwf	??_data_to_row+11
  1385  09C8  3007               	movlw	7
  1386  09C9                     u1675:	
  1387  09C9  1003               	clrc
  1388  09CA  0CAB               	rrf	??_data_to_row+11,f
  1389  09CB  3EFF               	addlw	-1
  1390  09CC  1D03               	skipz
  1391  09CD  29C9               	goto	u1675
  1392  09CE  082B               	movf	??_data_to_row+11,w
  1393  09CF  072A               	addwf	??_data_to_row+10,w
  1394  09D0  00AC               	movwf	??_data_to_row+12
  1395  09D1  082C               	movf	??_data_to_row+12,w
  1396  09D2  00AF               	movwf	_line3
  1397                           
  1398                           ;led_matrix_ds18b20.c: 66: line2 = ((d_row[13] & mask) >> 1) + ((d_row[12] & mask) >> 2)
      +                           + ((d_row[11] & mask) >> 3) +
  1399                           ;led_matrix_ds18b20.c: 67: ((d_row[10] & mask) >> 4) + ((d_row[9] & mask) >> 5) + ((d_ro
      +                          w[8] & mask) >> 6) + ((d_row[7] & mask) >> 7);
  1400  09D3  0878               	movf	data_to_row@d_row,w
  1401  09D4  3E0D               	addlw	13
  1402  09D5  0084               	movwf	4
  1403  09D6  120A  158A  2000  120A  158A  	fcall	stringdir
  1404  09DB  0577               	andwf	data_to_row@mask,w
  1405  09DC  00A0               	movwf	??_data_to_row
  1406  09DD  3001               	movlw	1
  1407  09DE                     u1685:	
  1408  09DE  1003               	clrc
  1409  09DF  0CA0               	rrf	??_data_to_row,f
  1410  09E0  3EFF               	addlw	-1
  1411  09E1  1D03               	skipz
  1412  09E2  29DE               	goto	u1685
  1413  09E3  0878               	movf	data_to_row@d_row,w
  1414  09E4  3E0C               	addlw	12
  1415  09E5  0084               	movwf	4
  1416  09E6  120A  158A  2000  120A  158A  	fcall	stringdir
  1417  09EB  0577               	andwf	data_to_row@mask,w
  1418  09EC  00A1               	movwf	??_data_to_row+1
  1419  09ED  3002               	movlw	2
  1420  09EE                     u1695:	
  1421  09EE  1003               	clrc
  1422  09EF  0CA1               	rrf	??_data_to_row+1,f
  1423  09F0  3EFF               	addlw	-1
  1424  09F1  1D03               	skipz
  1425  09F2  29EE               	goto	u1695
  1426  09F3  0821               	movf	??_data_to_row+1,w
  1427  09F4  0720               	addwf	??_data_to_row,w
  1428  09F5  00A2               	movwf	??_data_to_row+2
  1429  09F6  0878               	movf	data_to_row@d_row,w
  1430  09F7  3E0B               	addlw	11
  1431  09F8  0084               	movwf	4
  1432  09F9  120A  158A  2000  120A  158A  	fcall	stringdir
  1433  09FE  0577               	andwf	data_to_row@mask,w
  1434  09FF  00A3               	movwf	??_data_to_row+3
  1435  0A00  3003               	movlw	3
  1436  0A01                     u1705:	
  1437  0A01  1003               	clrc
  1438  0A02  0CA3               	rrf	??_data_to_row+3,f
  1439  0A03  3EFF               	addlw	-1
  1440  0A04  1D03               	skipz
  1441  0A05  2A01               	goto	u1705
  1442  0A06  0823               	movf	??_data_to_row+3,w
  1443  0A07  0722               	addwf	??_data_to_row+2,w
  1444  0A08  00A4               	movwf	??_data_to_row+4
  1445  0A09  0878               	movf	data_to_row@d_row,w
  1446  0A0A  3E0A               	addlw	10
  1447  0A0B  0084               	movwf	4
  1448  0A0C  120A  158A  2000  120A  158A  	fcall	stringdir
  1449  0A11  0577               	andwf	data_to_row@mask,w
  1450  0A12  00A5               	movwf	??_data_to_row+5
  1451  0A13  3004               	movlw	4
  1452  0A14                     u1715:	
  1453  0A14  1003               	clrc
  1454  0A15  0CA5               	rrf	??_data_to_row+5,f
  1455  0A16  3EFF               	addlw	-1
  1456  0A17  1D03               	skipz
  1457  0A18  2A14               	goto	u1715
  1458  0A19  0825               	movf	??_data_to_row+5,w
  1459  0A1A  0724               	addwf	??_data_to_row+4,w
  1460  0A1B  00A6               	movwf	??_data_to_row+6
  1461  0A1C  0878               	movf	data_to_row@d_row,w
  1462  0A1D  3E09               	addlw	9
  1463  0A1E  0084               	movwf	4
  1464  0A1F  120A  158A  2000  120A  158A  	fcall	stringdir
  1465  0A24  0577               	andwf	data_to_row@mask,w
  1466  0A25  00A7               	movwf	??_data_to_row+7
  1467  0A26  3005               	movlw	5
  1468  0A27                     u1725:	
  1469  0A27  1003               	clrc
  1470  0A28  0CA7               	rrf	??_data_to_row+7,f
  1471  0A29  3EFF               	addlw	-1
  1472  0A2A  1D03               	skipz
  1473  0A2B  2A27               	goto	u1725
  1474  0A2C  0827               	movf	??_data_to_row+7,w
  1475  0A2D  0726               	addwf	??_data_to_row+6,w
  1476  0A2E  00A8               	movwf	??_data_to_row+8
  1477  0A2F  0878               	movf	data_to_row@d_row,w
  1478  0A30  3E08               	addlw	8
  1479  0A31  0084               	movwf	4
  1480  0A32  120A  158A  2000  120A  158A  	fcall	stringdir
  1481  0A37  0577               	andwf	data_to_row@mask,w
  1482  0A38  00A9               	movwf	??_data_to_row+9
  1483  0A39  3006               	movlw	6
  1484  0A3A                     u1735:	
  1485  0A3A  1003               	clrc
  1486  0A3B  0CA9               	rrf	??_data_to_row+9,f
  1487  0A3C  3EFF               	addlw	-1
  1488  0A3D  1D03               	skipz
  1489  0A3E  2A3A               	goto	u1735
  1490  0A3F  0829               	movf	??_data_to_row+9,w
  1491  0A40  0728               	addwf	??_data_to_row+8,w
  1492  0A41  00AA               	movwf	??_data_to_row+10
  1493  0A42  0878               	movf	data_to_row@d_row,w
  1494  0A43  3E07               	addlw	7
  1495  0A44  0084               	movwf	4
  1496  0A45  120A  158A  2000   	fcall	stringdir
  1497  0A48  0577               	andwf	data_to_row@mask,w
  1498  0A49  120A  158A  2943   	ljmp	L2
  1499                           
  1500                           	psect	text4_split_2
  1501  0943                     L2:	
  1502  0943  00AB               	movwf	??_data_to_row+11
  1503  0944  3007               	movlw	7
  1504  0945                     u1745:	
  1505  0945  1003               	clrc
  1506  0946  0CAB               	rrf	??_data_to_row+11,f
  1507  0947  3EFF               	addlw	-1
  1508  0948  1D03               	skipz
  1509  0949  2945               	goto	u1745
  1510  094A  082B               	movf	??_data_to_row+11,w
  1511  094B  072A               	addwf	??_data_to_row+10,w
  1512  094C  00AC               	movwf	??_data_to_row+12
  1513  094D  082C               	movf	??_data_to_row+12,w
  1514  094E  00AE               	movwf	_line2
  1515                           
  1516                           ;led_matrix_ds18b20.c: 68: line1 = ((d_row[6] & mask) >> 1) + ((d_row[5] & mask) >> 2) +
      +                           ((d_row[4] & mask) >> 3) +
  1517                           ;led_matrix_ds18b20.c: 69: ((d_row[3] & mask) >> 4) + ((d_row[2] & mask) >> 5) + ((d_row
      +                          [1] & mask) >> 6) + ((d_row[0] & mask) >> 7);
  1518  094F  0878               	movf	data_to_row@d_row,w
  1519  0950  3E06               	addlw	6
  1520  0951  0084               	movwf	4
  1521  0952  120A  158A  2000  120A  158A  	fcall	stringdir
  1522  0957  0577               	andwf	data_to_row@mask,w
  1523  0958  00A0               	movwf	??_data_to_row
  1524  0959  3001               	movlw	1
  1525  095A                     u1755:	
  1526  095A  1003               	clrc
  1527  095B  0CA0               	rrf	??_data_to_row,f
  1528  095C  3EFF               	addlw	-1
  1529  095D  1D03               	skipz
  1530  095E  295A               	goto	u1755
  1531  095F  0878               	movf	data_to_row@d_row,w
  1532  0960  3E05               	addlw	5
  1533  0961  0084               	movwf	4
  1534  0962  120A  158A  2000  120A  158A  	fcall	stringdir
  1535  0967  0577               	andwf	data_to_row@mask,w
  1536  0968  00A1               	movwf	??_data_to_row+1
  1537  0969  3002               	movlw	2
  1538  096A                     u1765:	
  1539  096A  1003               	clrc
  1540  096B  0CA1               	rrf	??_data_to_row+1,f
  1541  096C  3EFF               	addlw	-1
  1542  096D  1D03               	skipz
  1543  096E  296A               	goto	u1765
  1544  096F  0821               	movf	??_data_to_row+1,w
  1545  0970  0720               	addwf	??_data_to_row,w
  1546  0971  00A2               	movwf	??_data_to_row+2
  1547  0972  0878               	movf	data_to_row@d_row,w
  1548  0973  3E04               	addlw	4
  1549  0974  0084               	movwf	4
  1550  0975  120A  158A  2000  120A  158A  	fcall	stringdir
  1551  097A  0577               	andwf	data_to_row@mask,w
  1552  097B  00A3               	movwf	??_data_to_row+3
  1553  097C  3003               	movlw	3
  1554  097D                     u1775:	
  1555  097D  1003               	clrc
  1556  097E  0CA3               	rrf	??_data_to_row+3,f
  1557  097F  3EFF               	addlw	-1
  1558  0980  1D03               	skipz
  1559  0981  297D               	goto	u1775
  1560  0982  0823               	movf	??_data_to_row+3,w
  1561  0983  0722               	addwf	??_data_to_row+2,w
  1562  0984  00A4               	movwf	??_data_to_row+4
  1563  0985  0878               	movf	data_to_row@d_row,w
  1564  0986  3E03               	addlw	3
  1565  0987  0084               	movwf	4
  1566  0988  120A  158A  2000  120A  158A  	fcall	stringdir
  1567  098D  0577               	andwf	data_to_row@mask,w
  1568  098E  00A5               	movwf	??_data_to_row+5
  1569  098F  3004               	movlw	4
  1570  0990                     u1785:	
  1571  0990  1003               	clrc
  1572  0991  0CA5               	rrf	??_data_to_row+5,f
  1573  0992  3EFF               	addlw	-1
  1574  0993  1D03               	skipz
  1575  0994  2990               	goto	u1785
  1576  0995  0825               	movf	??_data_to_row+5,w
  1577  0996  0724               	addwf	??_data_to_row+4,w
  1578  0997  00A6               	movwf	??_data_to_row+6
  1579  0998  0878               	movf	data_to_row@d_row,w
  1580  0999  3E02               	addlw	2
  1581  099A  0084               	movwf	4
  1582  099B  120A  158A  2000  120A  158A  	fcall	stringdir
  1583  09A0  0577               	andwf	data_to_row@mask,w
  1584  09A1  00A7               	movwf	??_data_to_row+7
  1585  09A2  3005               	movlw	5
  1586  09A3                     u1795:	
  1587  09A3  1003               	clrc
  1588  09A4  0CA7               	rrf	??_data_to_row+7,f
  1589  09A5  3EFF               	addlw	-1
  1590  09A6  1D03               	skipz
  1591  09A7  29A3               	goto	u1795
  1592  09A8  0827               	movf	??_data_to_row+7,w
  1593  09A9  0726               	addwf	??_data_to_row+6,w
  1594  09AA  00A8               	movwf	??_data_to_row+8
  1595  09AB  0878               	movf	data_to_row@d_row,w
  1596  09AC  3E01               	addlw	1
  1597  09AD  0084               	movwf	4
  1598  09AE  120A  158A  2000  120A  158A  	fcall	stringdir
  1599  09B3  0577               	andwf	data_to_row@mask,w
  1600  09B4  00A9               	movwf	??_data_to_row+9
  1601  09B5  3006               	movlw	6
  1602  09B6                     u1805:	
  1603  09B6  1003               	clrc
  1604  09B7  0CA9               	rrf	??_data_to_row+9,f
  1605  09B8  3EFF               	addlw	-1
  1606  09B9  1D03               	skipz
  1607  09BA  29B6               	goto	u1805
  1608  09BB  0829               	movf	??_data_to_row+9,w
  1609  09BC  0728               	addwf	??_data_to_row+8,w
  1610  09BD  00AA               	movwf	??_data_to_row+10
  1611  09BE  0878               	movf	data_to_row@d_row,w
  1612  09BF  0084               	movwf	4
  1613  09C0  120A  158A  2000   	fcall	stringdir
  1614  09C3  0577               	andwf	data_to_row@mask,w
  1615  09C4  120A  158A  2AD2   	ljmp	L3
  1616                           
  1617                           	psect	text4_split_3
  1618  0AD2                     L3:	
  1619  0AD2  00AB               	movwf	??_data_to_row+11
  1620  0AD3  3007               	movlw	7
  1621  0AD4                     u1815:	
  1622  0AD4  1003               	clrc
  1623  0AD5  0CAB               	rrf	??_data_to_row+11,f
  1624  0AD6  3EFF               	addlw	-1
  1625  0AD7  1D03               	skipz
  1626  0AD8  2AD4               	goto	u1815
  1627  0AD9  082B               	movf	??_data_to_row+11,w
  1628  0ADA  072A               	addwf	??_data_to_row+10,w
  1629  0ADB  00AC               	movwf	??_data_to_row+12
  1630  0ADC  082C               	movf	??_data_to_row+12,w
  1631  0ADD  00AD               	movwf	_line1
  1632                           
  1633                           ;led_matrix_ds18b20.c: 70: d_column = line3;
  1634  0ADE  082F               	movf	_line3,w
  1635  0ADF  00A0               	movwf	??_data_to_row
  1636  0AE0  01A1               	clrf	??_data_to_row+1
  1637  0AE1  01A2               	clrf	??_data_to_row+2
  1638  0AE2  0820               	movf	??_data_to_row,w
  1639  0AE3  00FB               	movwf	_d_column
  1640  0AE4  0821               	movf	??_data_to_row+1,w
  1641  0AE5  00FC               	movwf	_d_column+1
  1642  0AE6  0822               	movf	??_data_to_row+2,w
  1643  0AE7  00FD               	movwf	_d_column+2
  1644                           
  1645                           ;led_matrix_ds18b20.c: 71: d_column = (d_column << 8) + line2;
  1646  0AE8  082E               	movf	_line2,w
  1647  0AE9  00A0               	movwf	??_data_to_row
  1648  0AEA  01A1               	clrf	??_data_to_row+1
  1649  0AEB  01A2               	clrf	??_data_to_row+2
  1650  0AEC  087B               	movf	_d_column,w
  1651  0AED  00A3               	movwf	??_data_to_row+3
  1652  0AEE  087C               	movf	_d_column+1,w
  1653  0AEF  00A4               	movwf	??_data_to_row+4
  1654  0AF0  087D               	movf	_d_column+2,w
  1655  0AF1  00A5               	movwf	??_data_to_row+5
  1656  0AF2  3008               	movlw	8
  1657  0AF3                     u1825:	
  1658  0AF3  1003               	clrc
  1659  0AF4  0DA3               	rlf	??_data_to_row+3,f
  1660  0AF5  0DA4               	rlf	??_data_to_row+4,f
  1661  0AF6  0DA5               	rlf	??_data_to_row+5,f
  1662  0AF7  3EFF               	addlw	-1
  1663  0AF8  1D03               	skipz
  1664  0AF9  2AF3               	goto	u1825
  1665  0AFA  0823               	movf	??_data_to_row+3,w
  1666  0AFB  07A0               	addwf	??_data_to_row,f
  1667  0AFC  0824               	movf	??_data_to_row+4,w
  1668  0AFD  1803               	skipnc
  1669  0AFE  0F24               	incfsz	??_data_to_row+4,w
  1670  0AFF  2B01               	goto	u1831
  1671  0B00  2B02               	goto	u1832
  1672  0B01                     u1831:	
  1673  0B01  07A1               	addwf	??_data_to_row+1,f
  1674  0B02                     u1832:	
  1675  0B02  0825               	movf	??_data_to_row+5,w
  1676  0B03  1803               	skipnc
  1677  0B04  0F25               	incfsz	??_data_to_row+5,w
  1678  0B05  2B07               	goto	u1833
  1679  0B06  2B08               	goto	u1834
  1680  0B07                     u1833:	
  1681  0B07  07A2               	addwf	??_data_to_row+2,f
  1682  0B08                     u1834:	
  1683  0B08  0820               	movf	??_data_to_row,w
  1684  0B09  00FB               	movwf	_d_column
  1685  0B0A  0821               	movf	??_data_to_row+1,w
  1686  0B0B  00FC               	movwf	_d_column+1
  1687  0B0C  0822               	movf	??_data_to_row+2,w
  1688  0B0D  00FD               	movwf	_d_column+2
  1689                           
  1690                           ;led_matrix_ds18b20.c: 72: d_column = (d_column << 8) + line1;
  1691  0B0E  082D               	movf	_line1,w
  1692  0B0F  00A0               	movwf	??_data_to_row
  1693  0B10  01A1               	clrf	??_data_to_row+1
  1694  0B11  01A2               	clrf	??_data_to_row+2
  1695  0B12  087B               	movf	_d_column,w
  1696  0B13  00A3               	movwf	??_data_to_row+3
  1697  0B14  087C               	movf	_d_column+1,w
  1698  0B15  00A4               	movwf	??_data_to_row+4
  1699  0B16  087D               	movf	_d_column+2,w
  1700  0B17  00A5               	movwf	??_data_to_row+5
  1701  0B18  3008               	movlw	8
  1702  0B19                     u1845:	
  1703  0B19  1003               	clrc
  1704  0B1A  0DA3               	rlf	??_data_to_row+3,f
  1705  0B1B  0DA4               	rlf	??_data_to_row+4,f
  1706  0B1C  0DA5               	rlf	??_data_to_row+5,f
  1707  0B1D  3EFF               	addlw	-1
  1708  0B1E  1D03               	skipz
  1709  0B1F  2B19               	goto	u1845
  1710  0B20  0823               	movf	??_data_to_row+3,w
  1711  0B21  07A0               	addwf	??_data_to_row,f
  1712  0B22  0824               	movf	??_data_to_row+4,w
  1713  0B23  1803               	skipnc
  1714  0B24  0F24               	incfsz	??_data_to_row+4,w
  1715  0B25  2B27               	goto	u1851
  1716  0B26  2B28               	goto	u1852
  1717  0B27                     u1851:	
  1718  0B27  07A1               	addwf	??_data_to_row+1,f
  1719  0B28                     u1852:	
  1720  0B28  0825               	movf	??_data_to_row+5,w
  1721  0B29  1803               	skipnc
  1722  0B2A  0F25               	incfsz	??_data_to_row+5,w
  1723  0B2B  2B2D               	goto	u1853
  1724  0B2C  2B2E               	goto	u1854
  1725  0B2D                     u1853:	
  1726  0B2D  07A2               	addwf	??_data_to_row+2,f
  1727  0B2E                     u1854:	
  1728  0B2E  0820               	movf	??_data_to_row,w
  1729  0B2F  00FB               	movwf	_d_column
  1730  0B30  0821               	movf	??_data_to_row+1,w
  1731  0B31  00FC               	movwf	_d_column+1
  1732  0B32  0822               	movf	??_data_to_row+2,w
  1733  0B33  00FD               	movwf	_d_column+2
  1734                           
  1735                           ;led_matrix_ds18b20.c: 73: data_to_column(d_column);
  1736  0B34  087B               	movf	_d_column,w
  1737  0B35  00F0               	movwf	data_to_column@d_col
  1738  0B36  087C               	movf	_d_column+1,w
  1739  0B37  00F1               	movwf	data_to_column@d_col+1
  1740  0B38  087D               	movf	_d_column+2,w
  1741  0B39  00F2               	movwf	data_to_column@d_col+2
  1742  0B3A  160A  118A  27A5  120A  158A  	fcall	_data_to_column
  1743                           
  1744                           ;led_matrix_ds18b20.c: 75: mask = 0x40;
  1745  0B3F  3040               	movlw	64
  1746  0B40  1283               	bcf	3,5	;RP0=0, select bank0
  1747  0B41  1303               	bcf	3,6	;RP1=0, select bank0
  1748  0B42  00A0               	movwf	??_data_to_row
  1749  0B43  0820               	movf	??_data_to_row,w
  1750  0B44  00F7               	movwf	data_to_row@mask
  1751                           
  1752                           ;led_matrix_ds18b20.c: 76: line3 = (d_row[20] & mask) + ((d_row[19] & mask) >> 1) + ((d_
      +                          row[18] & mask) >> 2) +
  1753                           ;led_matrix_ds18b20.c: 77: ((d_row[17] & mask) >> 3) + ((d_row[16] & mask) >> 4) + ((d_r
      +                          ow[15] & mask) >> 5) + ((d_row[14] & mask) >> 6);
  1754  0B45  0878               	movf	data_to_row@d_row,w
  1755  0B46  3E14               	addlw	20
  1756  0B47  0084               	movwf	4
  1757  0B48  120A  158A  2000  120A  158A  	fcall	stringdir
  1758  0B4D  0577               	andwf	data_to_row@mask,w
  1759  0B4E  00A0               	movwf	??_data_to_row
  1760  0B4F  0878               	movf	data_to_row@d_row,w
  1761  0B50  3E13               	addlw	19
  1762  0B51  0084               	movwf	4
  1763  0B52  120A  158A  2000   	fcall	stringdir
  1764  0B55  0577               	andwf	data_to_row@mask,w
  1765  0B56  120A  158A  2BE1   	ljmp	L4
  1766                           
  1767                           	psect	text4_split_4
  1768  0BE1                     L4:	
  1769  0BE1  00A1               	movwf	??_data_to_row+1
  1770  0BE2  1003               	clrc
  1771  0BE3  0C21               	rrf	??_data_to_row+1,w
  1772  0BE4  0720               	addwf	??_data_to_row,w
  1773  0BE5  00A2               	movwf	??_data_to_row+2
  1774  0BE6  0878               	movf	data_to_row@d_row,w
  1775  0BE7  3E12               	addlw	18
  1776  0BE8  0084               	movwf	4
  1777  0BE9  120A  158A  2000  120A  158A  	fcall	stringdir
  1778  0BEE  0577               	andwf	data_to_row@mask,w
  1779  0BEF  00A3               	movwf	??_data_to_row+3
  1780  0BF0  3002               	movlw	2
  1781  0BF1                     u1865:	
  1782  0BF1  1003               	clrc
  1783  0BF2  0CA3               	rrf	??_data_to_row+3,f
  1784  0BF3  3EFF               	addlw	-1
  1785  0BF4  1D03               	skipz
  1786  0BF5  2BF1               	goto	u1865
  1787  0BF6  0823               	movf	??_data_to_row+3,w
  1788  0BF7  0722               	addwf	??_data_to_row+2,w
  1789  0BF8  00A4               	movwf	??_data_to_row+4
  1790  0BF9  0878               	movf	data_to_row@d_row,w
  1791  0BFA  3E11               	addlw	17
  1792  0BFB  0084               	movwf	4
  1793  0BFC  120A  158A  2000  120A  158A  	fcall	stringdir
  1794  0C01  0577               	andwf	data_to_row@mask,w
  1795  0C02  00A5               	movwf	??_data_to_row+5
  1796  0C03  3003               	movlw	3
  1797  0C04                     u1875:	
  1798  0C04  1003               	clrc
  1799  0C05  0CA5               	rrf	??_data_to_row+5,f
  1800  0C06  3EFF               	addlw	-1
  1801  0C07  1D03               	skipz
  1802  0C08  2C04               	goto	u1875
  1803  0C09  0825               	movf	??_data_to_row+5,w
  1804  0C0A  0724               	addwf	??_data_to_row+4,w
  1805  0C0B  00A6               	movwf	??_data_to_row+6
  1806  0C0C  0878               	movf	data_to_row@d_row,w
  1807  0C0D  3E10               	addlw	16
  1808  0C0E  0084               	movwf	4
  1809  0C0F  120A  158A  2000  120A  158A  	fcall	stringdir
  1810  0C14  0577               	andwf	data_to_row@mask,w
  1811  0C15  00A7               	movwf	??_data_to_row+7
  1812  0C16  3004               	movlw	4
  1813  0C17                     u1885:	
  1814  0C17  1003               	clrc
  1815  0C18  0CA7               	rrf	??_data_to_row+7,f
  1816  0C19  3EFF               	addlw	-1
  1817  0C1A  1D03               	skipz
  1818  0C1B  2C17               	goto	u1885
  1819  0C1C  0827               	movf	??_data_to_row+7,w
  1820  0C1D  0726               	addwf	??_data_to_row+6,w
  1821  0C1E  00A8               	movwf	??_data_to_row+8
  1822  0C1F  0878               	movf	data_to_row@d_row,w
  1823  0C20  3E0F               	addlw	15
  1824  0C21  0084               	movwf	4
  1825  0C22  120A  158A  2000  120A  158A  	fcall	stringdir
  1826  0C27  0577               	andwf	data_to_row@mask,w
  1827  0C28  00A9               	movwf	??_data_to_row+9
  1828  0C29  3005               	movlw	5
  1829  0C2A                     u1895:	
  1830  0C2A  1003               	clrc
  1831  0C2B  0CA9               	rrf	??_data_to_row+9,f
  1832  0C2C  3EFF               	addlw	-1
  1833  0C2D  1D03               	skipz
  1834  0C2E  2C2A               	goto	u1895
  1835  0C2F  0829               	movf	??_data_to_row+9,w
  1836  0C30  0728               	addwf	??_data_to_row+8,w
  1837  0C31  00AA               	movwf	??_data_to_row+10
  1838  0C32  0878               	movf	data_to_row@d_row,w
  1839  0C33  3E0E               	addlw	14
  1840  0C34  0084               	movwf	4
  1841  0C35  120A  158A  2000  120A  158A  	fcall	stringdir
  1842  0C3A  0577               	andwf	data_to_row@mask,w
  1843  0C3B  00AB               	movwf	??_data_to_row+11
  1844  0C3C  3006               	movlw	6
  1845  0C3D                     u1905:	
  1846  0C3D  1003               	clrc
  1847  0C3E  0CAB               	rrf	??_data_to_row+11,f
  1848  0C3F  3EFF               	addlw	-1
  1849  0C40  1D03               	skipz
  1850  0C41  2C3D               	goto	u1905
  1851  0C42  082B               	movf	??_data_to_row+11,w
  1852  0C43  072A               	addwf	??_data_to_row+10,w
  1853  0C44  00AC               	movwf	??_data_to_row+12
  1854  0C45  082C               	movf	??_data_to_row+12,w
  1855  0C46  00AF               	movwf	_line3
  1856                           
  1857                           ;led_matrix_ds18b20.c: 78: line2 = (d_row[13] & mask) + ((d_row[12] & mask) >> 1) + ((d_
      +                          row[11] & mask) >> 2) +
  1858                           ;led_matrix_ds18b20.c: 79: ((d_row[10] & mask) >> 3) + ((d_row[9] & mask) >> 4) + ((d_ro
      +                          w[8] & mask) >> 5) + ((d_row[7] & mask) >> 6);
  1859  0C47  0878               	movf	data_to_row@d_row,w
  1860  0C48  3E0D               	addlw	13
  1861  0C49  0084               	movwf	4
  1862  0C4A  120A  158A  2000  120A  158A  	fcall	stringdir
  1863  0C4F  0577               	andwf	data_to_row@mask,w
  1864  0C50  00A0               	movwf	??_data_to_row
  1865  0C51  0878               	movf	data_to_row@d_row,w
  1866  0C52  3E0C               	addlw	12
  1867  0C53  0084               	movwf	4
  1868  0C54  120A  158A  2000  120A  158A  	fcall	stringdir
  1869  0C59  0577               	andwf	data_to_row@mask,w
  1870  0C5A  00A1               	movwf	??_data_to_row+1
  1871  0C5B  1003               	clrc
  1872  0C5C  0C21               	rrf	??_data_to_row+1,w
  1873  0C5D  0720               	addwf	??_data_to_row,w
  1874  0C5E  00A2               	movwf	??_data_to_row+2
  1875  0C5F  0878               	movf	data_to_row@d_row,w
  1876  0C60  3E0B               	addlw	11
  1877  0C61  0084               	movwf	4
  1878  0C62  120A  158A  2000   	fcall	stringdir
  1879  0C65  0577               	andwf	data_to_row@mask,w
  1880  0C66  120A  158A  2D7C   	ljmp	L5
  1881                           
  1882                           	psect	text4_split_5
  1883  0D7C                     L5:	
  1884  0D7C  00A3               	movwf	??_data_to_row+3
  1885  0D7D  3002               	movlw	2
  1886  0D7E                     u1915:	
  1887  0D7E  1003               	clrc
  1888  0D7F  0CA3               	rrf	??_data_to_row+3,f
  1889  0D80  3EFF               	addlw	-1
  1890  0D81  1D03               	skipz
  1891  0D82  2D7E               	goto	u1915
  1892  0D83  0823               	movf	??_data_to_row+3,w
  1893  0D84  0722               	addwf	??_data_to_row+2,w
  1894  0D85  00A4               	movwf	??_data_to_row+4
  1895  0D86  0878               	movf	data_to_row@d_row,w
  1896  0D87  3E0A               	addlw	10
  1897  0D88  0084               	movwf	4
  1898  0D89  120A  158A  2000  120A  158A  	fcall	stringdir
  1899  0D8E  0577               	andwf	data_to_row@mask,w
  1900  0D8F  00A5               	movwf	??_data_to_row+5
  1901  0D90  3003               	movlw	3
  1902  0D91                     u1925:	
  1903  0D91  1003               	clrc
  1904  0D92  0CA5               	rrf	??_data_to_row+5,f
  1905  0D93  3EFF               	addlw	-1
  1906  0D94  1D03               	skipz
  1907  0D95  2D91               	goto	u1925
  1908  0D96  0825               	movf	??_data_to_row+5,w
  1909  0D97  0724               	addwf	??_data_to_row+4,w
  1910  0D98  00A6               	movwf	??_data_to_row+6
  1911  0D99  0878               	movf	data_to_row@d_row,w
  1912  0D9A  3E09               	addlw	9
  1913  0D9B  0084               	movwf	4
  1914  0D9C  120A  158A  2000  120A  158A  	fcall	stringdir
  1915  0DA1  0577               	andwf	data_to_row@mask,w
  1916  0DA2  00A7               	movwf	??_data_to_row+7
  1917  0DA3  3004               	movlw	4
  1918  0DA4                     u1935:	
  1919  0DA4  1003               	clrc
  1920  0DA5  0CA7               	rrf	??_data_to_row+7,f
  1921  0DA6  3EFF               	addlw	-1
  1922  0DA7  1D03               	skipz
  1923  0DA8  2DA4               	goto	u1935
  1924  0DA9  0827               	movf	??_data_to_row+7,w
  1925  0DAA  0726               	addwf	??_data_to_row+6,w
  1926  0DAB  00A8               	movwf	??_data_to_row+8
  1927  0DAC  0878               	movf	data_to_row@d_row,w
  1928  0DAD  3E08               	addlw	8
  1929  0DAE  0084               	movwf	4
  1930  0DAF  120A  158A  2000  120A  158A  	fcall	stringdir
  1931  0DB4  0577               	andwf	data_to_row@mask,w
  1932  0DB5  00A9               	movwf	??_data_to_row+9
  1933  0DB6  3005               	movlw	5
  1934  0DB7                     u1945:	
  1935  0DB7  1003               	clrc
  1936  0DB8  0CA9               	rrf	??_data_to_row+9,f
  1937  0DB9  3EFF               	addlw	-1
  1938  0DBA  1D03               	skipz
  1939  0DBB  2DB7               	goto	u1945
  1940  0DBC  0829               	movf	??_data_to_row+9,w
  1941  0DBD  0728               	addwf	??_data_to_row+8,w
  1942  0DBE  00AA               	movwf	??_data_to_row+10
  1943  0DBF  0878               	movf	data_to_row@d_row,w
  1944  0DC0  3E07               	addlw	7
  1945  0DC1  0084               	movwf	4
  1946  0DC2  120A  158A  2000  120A  158A  	fcall	stringdir
  1947  0DC7  0577               	andwf	data_to_row@mask,w
  1948  0DC8  00AB               	movwf	??_data_to_row+11
  1949  0DC9  3006               	movlw	6
  1950  0DCA                     u1955:	
  1951  0DCA  1003               	clrc
  1952  0DCB  0CAB               	rrf	??_data_to_row+11,f
  1953  0DCC  3EFF               	addlw	-1
  1954  0DCD  1D03               	skipz
  1955  0DCE  2DCA               	goto	u1955
  1956  0DCF  082B               	movf	??_data_to_row+11,w
  1957  0DD0  072A               	addwf	??_data_to_row+10,w
  1958  0DD1  00AC               	movwf	??_data_to_row+12
  1959  0DD2  082C               	movf	??_data_to_row+12,w
  1960  0DD3  00AE               	movwf	_line2
  1961                           
  1962                           ;led_matrix_ds18b20.c: 80: line1 = (d_row[6] & mask) + ((d_row[5] & mask) >> 1) + ((d_ro
      +                          w[4] & mask) >> 2) +
  1963                           ;led_matrix_ds18b20.c: 81: ((d_row[3] & mask) >> 3) + ((d_row[2] & mask) >> 4) + ((d_row
      +                          [1] & mask) >> 5) + ((d_row[0] & mask) >> 6);
  1964  0DD4  0878               	movf	data_to_row@d_row,w
  1965  0DD5  3E06               	addlw	6
  1966  0DD6  0084               	movwf	4
  1967  0DD7  120A  158A  2000  120A  158A  	fcall	stringdir
  1968  0DDC  0577               	andwf	data_to_row@mask,w
  1969  0DDD  00A0               	movwf	??_data_to_row
  1970  0DDE  0878               	movf	data_to_row@d_row,w
  1971  0DDF  3E05               	addlw	5
  1972  0DE0  0084               	movwf	4
  1973  0DE1  120A  158A  2000  120A  158A  	fcall	stringdir
  1974  0DE6  0577               	andwf	data_to_row@mask,w
  1975  0DE7  00A1               	movwf	??_data_to_row+1
  1976  0DE8  1003               	clrc
  1977  0DE9  0C21               	rrf	??_data_to_row+1,w
  1978  0DEA  0720               	addwf	??_data_to_row,w
  1979  0DEB  00A2               	movwf	??_data_to_row+2
  1980  0DEC  0878               	movf	data_to_row@d_row,w
  1981  0DED  3E04               	addlw	4
  1982  0DEE  0084               	movwf	4
  1983  0DEF  120A  158A  2000  120A  158A  	fcall	stringdir
  1984  0DF4  0577               	andwf	data_to_row@mask,w
  1985  0DF5  00A3               	movwf	??_data_to_row+3
  1986  0DF6  3002               	movlw	2
  1987  0DF7                     u1965:	
  1988  0DF7  1003               	clrc
  1989  0DF8  0CA3               	rrf	??_data_to_row+3,f
  1990  0DF9  3EFF               	addlw	-1
  1991  0DFA  1D03               	skipz
  1992  0DFB  2DF7               	goto	u1965
  1993  0DFC  0823               	movf	??_data_to_row+3,w
  1994  0DFD  0722               	addwf	??_data_to_row+2,w
  1995  0DFE  00A4               	movwf	??_data_to_row+4
  1996  0DFF  0878               	movf	data_to_row@d_row,w
  1997  0E00  3E03               	addlw	3
  1998  0E01  0084               	movwf	4
  1999  0E02  120A  158A  2000   	fcall	stringdir
  2000  0E05  0577               	andwf	data_to_row@mask,w
  2001  0E06  120A  158A  2E99   	ljmp	L6
  2002                           
  2003                           	psect	text4_split_6
  2004  0E99                     L6:	
  2005  0E99  00A5               	movwf	??_data_to_row+5
  2006  0E9A  3003               	movlw	3
  2007  0E9B                     u1975:	
  2008  0E9B  1003               	clrc
  2009  0E9C  0CA5               	rrf	??_data_to_row+5,f
  2010  0E9D  3EFF               	addlw	-1
  2011  0E9E  1D03               	skipz
  2012  0E9F  2E9B               	goto	u1975
  2013  0EA0  0825               	movf	??_data_to_row+5,w
  2014  0EA1  0724               	addwf	??_data_to_row+4,w
  2015  0EA2  00A6               	movwf	??_data_to_row+6
  2016  0EA3  0878               	movf	data_to_row@d_row,w
  2017  0EA4  3E02               	addlw	2
  2018  0EA5  0084               	movwf	4
  2019  0EA6  120A  158A  2000  120A  158A  	fcall	stringdir
  2020  0EAB  0577               	andwf	data_to_row@mask,w
  2021  0EAC  00A7               	movwf	??_data_to_row+7
  2022  0EAD  3004               	movlw	4
  2023  0EAE                     u1985:	
  2024  0EAE  1003               	clrc
  2025  0EAF  0CA7               	rrf	??_data_to_row+7,f
  2026  0EB0  3EFF               	addlw	-1
  2027  0EB1  1D03               	skipz
  2028  0EB2  2EAE               	goto	u1985
  2029  0EB3  0827               	movf	??_data_to_row+7,w
  2030  0EB4  0726               	addwf	??_data_to_row+6,w
  2031  0EB5  00A8               	movwf	??_data_to_row+8
  2032  0EB6  0878               	movf	data_to_row@d_row,w
  2033  0EB7  3E01               	addlw	1
  2034  0EB8  0084               	movwf	4
  2035  0EB9  120A  158A  2000  120A  158A  	fcall	stringdir
  2036  0EBE  0577               	andwf	data_to_row@mask,w
  2037  0EBF  00A9               	movwf	??_data_to_row+9
  2038  0EC0  3005               	movlw	5
  2039  0EC1                     u1995:	
  2040  0EC1  1003               	clrc
  2041  0EC2  0CA9               	rrf	??_data_to_row+9,f
  2042  0EC3  3EFF               	addlw	-1
  2043  0EC4  1D03               	skipz
  2044  0EC5  2EC1               	goto	u1995
  2045  0EC6  0829               	movf	??_data_to_row+9,w
  2046  0EC7  0728               	addwf	??_data_to_row+8,w
  2047  0EC8  00AA               	movwf	??_data_to_row+10
  2048  0EC9  0878               	movf	data_to_row@d_row,w
  2049  0ECA  0084               	movwf	4
  2050  0ECB  120A  158A  2000  120A  158A  	fcall	stringdir
  2051  0ED0  0577               	andwf	data_to_row@mask,w
  2052  0ED1  00AB               	movwf	??_data_to_row+11
  2053  0ED2  3006               	movlw	6
  2054  0ED3                     u2005:	
  2055  0ED3  1003               	clrc
  2056  0ED4  0CAB               	rrf	??_data_to_row+11,f
  2057  0ED5  3EFF               	addlw	-1
  2058  0ED6  1D03               	skipz
  2059  0ED7  2ED3               	goto	u2005
  2060  0ED8  082B               	movf	??_data_to_row+11,w
  2061  0ED9  072A               	addwf	??_data_to_row+10,w
  2062  0EDA  00AC               	movwf	??_data_to_row+12
  2063  0EDB  082C               	movf	??_data_to_row+12,w
  2064  0EDC  00AD               	movwf	_line1
  2065                           
  2066                           ;led_matrix_ds18b20.c: 82: d_column = line3;
  2067  0EDD  082F               	movf	_line3,w
  2068  0EDE  00A0               	movwf	??_data_to_row
  2069  0EDF  01A1               	clrf	??_data_to_row+1
  2070  0EE0  01A2               	clrf	??_data_to_row+2
  2071  0EE1  0820               	movf	??_data_to_row,w
  2072  0EE2  00FB               	movwf	_d_column
  2073  0EE3  0821               	movf	??_data_to_row+1,w
  2074  0EE4  00FC               	movwf	_d_column+1
  2075  0EE5  0822               	movf	??_data_to_row+2,w
  2076  0EE6  00FD               	movwf	_d_column+2
  2077                           
  2078                           ;led_matrix_ds18b20.c: 83: d_column = (d_column << 8) + line2;
  2079  0EE7  082E               	movf	_line2,w
  2080  0EE8  00A0               	movwf	??_data_to_row
  2081  0EE9  01A1               	clrf	??_data_to_row+1
  2082  0EEA  01A2               	clrf	??_data_to_row+2
  2083  0EEB  087B               	movf	_d_column,w
  2084  0EEC  00A3               	movwf	??_data_to_row+3
  2085  0EED  087C               	movf	_d_column+1,w
  2086  0EEE  00A4               	movwf	??_data_to_row+4
  2087  0EEF  087D               	movf	_d_column+2,w
  2088  0EF0  00A5               	movwf	??_data_to_row+5
  2089  0EF1  3008               	movlw	8
  2090  0EF2                     u2015:	
  2091  0EF2  1003               	clrc
  2092  0EF3  0DA3               	rlf	??_data_to_row+3,f
  2093  0EF4  0DA4               	rlf	??_data_to_row+4,f
  2094  0EF5  0DA5               	rlf	??_data_to_row+5,f
  2095  0EF6  3EFF               	addlw	-1
  2096  0EF7  1D03               	skipz
  2097  0EF8  2EF2               	goto	u2015
  2098  0EF9  0823               	movf	??_data_to_row+3,w
  2099  0EFA  07A0               	addwf	??_data_to_row,f
  2100  0EFB  0824               	movf	??_data_to_row+4,w
  2101  0EFC  1803               	skipnc
  2102  0EFD  0F24               	incfsz	??_data_to_row+4,w
  2103  0EFE  2F00               	goto	u2021
  2104  0EFF  2F01               	goto	u2022
  2105  0F00                     u2021:	
  2106  0F00  07A1               	addwf	??_data_to_row+1,f
  2107  0F01                     u2022:	
  2108  0F01  0825               	movf	??_data_to_row+5,w
  2109  0F02  1803               	skipnc
  2110  0F03  0F25               	incfsz	??_data_to_row+5,w
  2111  0F04  2F06               	goto	u2023
  2112  0F05  2F07               	goto	u2024
  2113  0F06                     u2023:	
  2114  0F06  07A2               	addwf	??_data_to_row+2,f
  2115  0F07                     u2024:	
  2116  0F07  0820               	movf	??_data_to_row,w
  2117  0F08  00FB               	movwf	_d_column
  2118  0F09  0821               	movf	??_data_to_row+1,w
  2119  0F0A  00FC               	movwf	_d_column+1
  2120  0F0B  0822               	movf	??_data_to_row+2,w
  2121  0F0C  00FD               	movwf	_d_column+2
  2122                           
  2123                           ;led_matrix_ds18b20.c: 84: d_column = (d_column << 8) + line1;
  2124  0F0D  082D               	movf	_line1,w
  2125  0F0E  00A0               	movwf	??_data_to_row
  2126  0F0F  01A1               	clrf	??_data_to_row+1
  2127  0F10  01A2               	clrf	??_data_to_row+2
  2128  0F11  087B               	movf	_d_column,w
  2129  0F12  00A3               	movwf	??_data_to_row+3
  2130  0F13  087C               	movf	_d_column+1,w
  2131  0F14  00A4               	movwf	??_data_to_row+4
  2132  0F15  087D               	movf	_d_column+2,w
  2133  0F16  00A5               	movwf	??_data_to_row+5
  2134  0F17  3008               	movlw	8
  2135  0F18                     u2035:	
  2136  0F18  1003               	clrc
  2137  0F19  0DA3               	rlf	??_data_to_row+3,f
  2138  0F1A  0DA4               	rlf	??_data_to_row+4,f
  2139  0F1B  0DA5               	rlf	??_data_to_row+5,f
  2140  0F1C  3EFF               	addlw	-1
  2141  0F1D  1D03               	skipz
  2142  0F1E  2F18               	goto	u2035
  2143  0F1F  0823               	movf	??_data_to_row+3,w
  2144  0F20  07A0               	addwf	??_data_to_row,f
  2145  0F21  0824               	movf	??_data_to_row+4,w
  2146  0F22  1803               	skipnc
  2147  0F23  0F24               	incfsz	??_data_to_row+4,w
  2148  0F24  2F26               	goto	u2041
  2149  0F25  2F27               	goto	u2042
  2150  0F26                     u2041:	
  2151  0F26  07A1               	addwf	??_data_to_row+1,f
  2152  0F27                     u2042:	
  2153  0F27  0825               	movf	??_data_to_row+5,w
  2154  0F28  1803               	skipnc
  2155  0F29  0F25               	incfsz	??_data_to_row+5,w
  2156  0F2A  2F2C               	goto	u2043
  2157  0F2B  2F2D               	goto	u2044
  2158  0F2C                     u2043:	
  2159  0F2C  07A2               	addwf	??_data_to_row+2,f
  2160  0F2D                     u2044:	
  2161  0F2D  0820               	movf	??_data_to_row,w
  2162  0F2E  00FB               	movwf	_d_column
  2163  0F2F  0821               	movf	??_data_to_row+1,w
  2164  0F30  00FC               	movwf	_d_column+1
  2165  0F31  0822               	movf	??_data_to_row+2,w
  2166  0F32  00FD               	movwf	_d_column+2
  2167                           
  2168                           ;led_matrix_ds18b20.c: 85: data_to_column(d_column);
  2169  0F33  087B               	movf	_d_column,w
  2170  0F34  00F0               	movwf	data_to_column@d_col
  2171  0F35  087C               	movf	_d_column+1,w
  2172  0F36  00F1               	movwf	data_to_column@d_col+1
  2173  0F37  087D               	movf	_d_column+2,w
  2174  0F38  00F2               	movwf	data_to_column@d_col+2
  2175  0F39  160A  118A  27A5   	fcall	_data_to_column
  2176                           
  2177                           ;led_matrix_ds18b20.c: 87: mask = 0x20;
  2178  0F3C  3020               	movlw	32
  2179  0F3D  120A  158A  2A4C   	ljmp	L7
  2180                           
  2181                           	psect	text4_split_7
  2182  0A4C                     L7:	
  2183  0A4C  1283               	bcf	3,5	;RP0=0, select bank0
  2184  0A4D  1303               	bcf	3,6	;RP1=0, select bank0
  2185  0A4E  00A0               	movwf	??_data_to_row
  2186  0A4F  0820               	movf	??_data_to_row,w
  2187  0A50  00F7               	movwf	data_to_row@mask
  2188                           
  2189                           ;led_matrix_ds18b20.c: 88: line3 = ((d_row[20] & mask) << 1) + (d_row[19] & mask) + ((d_
      +                          row[18] & mask) >> 1) +
  2190                           ;led_matrix_ds18b20.c: 89: ((d_row[17] & mask) >> 2) + ((d_row[16] & mask) >> 3) + ((d_r
      +                          ow[15] & mask) >> 4) + ((d_row[14] & mask) >> 5);
  2191  0A51  0878               	movf	data_to_row@d_row,w
  2192  0A52  3E14               	addlw	20
  2193  0A53  0084               	movwf	4
  2194  0A54  120A  158A  2000  120A  158A  	fcall	stringdir
  2195  0A59  0577               	andwf	data_to_row@mask,w
  2196  0A5A  00A0               	movwf	??_data_to_row
  2197  0A5B  3001               	movlw	1
  2198  0A5C                     u2055:	
  2199  0A5C  1003               	clrc
  2200  0A5D  0DA0               	rlf	??_data_to_row,f
  2201  0A5E  3EFF               	addlw	-1
  2202  0A5F  1D03               	skipz
  2203  0A60  2A5C               	goto	u2055
  2204  0A61  0878               	movf	data_to_row@d_row,w
  2205  0A62  3E13               	addlw	19
  2206  0A63  0084               	movwf	4
  2207  0A64  120A  158A  2000  120A  158A  	fcall	stringdir
  2208  0A69  0577               	andwf	data_to_row@mask,w
  2209  0A6A  0720               	addwf	??_data_to_row,w
  2210  0A6B  00A1               	movwf	??_data_to_row+1
  2211  0A6C  0878               	movf	data_to_row@d_row,w
  2212  0A6D  3E12               	addlw	18
  2213  0A6E  0084               	movwf	4
  2214  0A6F  120A  158A  2000  120A  158A  	fcall	stringdir
  2215  0A74  0577               	andwf	data_to_row@mask,w
  2216  0A75  00A2               	movwf	??_data_to_row+2
  2217  0A76  1003               	clrc
  2218  0A77  0C22               	rrf	??_data_to_row+2,w
  2219  0A78  0721               	addwf	??_data_to_row+1,w
  2220  0A79  00A3               	movwf	??_data_to_row+3
  2221  0A7A  0878               	movf	data_to_row@d_row,w
  2222  0A7B  3E11               	addlw	17
  2223  0A7C  0084               	movwf	4
  2224  0A7D  120A  158A  2000  120A  158A  	fcall	stringdir
  2225  0A82  0577               	andwf	data_to_row@mask,w
  2226  0A83  00A4               	movwf	??_data_to_row+4
  2227  0A84  3002               	movlw	2
  2228  0A85                     u2065:	
  2229  0A85  1003               	clrc
  2230  0A86  0CA4               	rrf	??_data_to_row+4,f
  2231  0A87  3EFF               	addlw	-1
  2232  0A88  1D03               	skipz
  2233  0A89  2A85               	goto	u2065
  2234  0A8A  0824               	movf	??_data_to_row+4,w
  2235  0A8B  0723               	addwf	??_data_to_row+3,w
  2236  0A8C  00A5               	movwf	??_data_to_row+5
  2237  0A8D  0878               	movf	data_to_row@d_row,w
  2238  0A8E  3E10               	addlw	16
  2239  0A8F  0084               	movwf	4
  2240  0A90  120A  158A  2000  120A  158A  	fcall	stringdir
  2241  0A95  0577               	andwf	data_to_row@mask,w
  2242  0A96  00A6               	movwf	??_data_to_row+6
  2243  0A97  3003               	movlw	3
  2244  0A98                     u2075:	
  2245  0A98  1003               	clrc
  2246  0A99  0CA6               	rrf	??_data_to_row+6,f
  2247  0A9A  3EFF               	addlw	-1
  2248  0A9B  1D03               	skipz
  2249  0A9C  2A98               	goto	u2075
  2250  0A9D  0826               	movf	??_data_to_row+6,w
  2251  0A9E  0725               	addwf	??_data_to_row+5,w
  2252  0A9F  00A7               	movwf	??_data_to_row+7
  2253  0AA0  0878               	movf	data_to_row@d_row,w
  2254  0AA1  3E0F               	addlw	15
  2255  0AA2  0084               	movwf	4
  2256  0AA3  120A  158A  2000  120A  158A  	fcall	stringdir
  2257  0AA8  0577               	andwf	data_to_row@mask,w
  2258  0AA9  00A8               	movwf	??_data_to_row+8
  2259  0AAA  3004               	movlw	4
  2260  0AAB                     u2085:	
  2261  0AAB  1003               	clrc
  2262  0AAC  0CA8               	rrf	??_data_to_row+8,f
  2263  0AAD  3EFF               	addlw	-1
  2264  0AAE  1D03               	skipz
  2265  0AAF  2AAB               	goto	u2085
  2266  0AB0  0828               	movf	??_data_to_row+8,w
  2267  0AB1  0727               	addwf	??_data_to_row+7,w
  2268  0AB2  00A9               	movwf	??_data_to_row+9
  2269  0AB3  0878               	movf	data_to_row@d_row,w
  2270  0AB4  3E0E               	addlw	14
  2271  0AB5  0084               	movwf	4
  2272  0AB6  120A  158A  2000  120A  158A  	fcall	stringdir
  2273  0ABB  0577               	andwf	data_to_row@mask,w
  2274  0ABC  00AA               	movwf	??_data_to_row+10
  2275  0ABD  3005               	movlw	5
  2276  0ABE                     u2095:	
  2277  0ABE  1003               	clrc
  2278  0ABF  0CAA               	rrf	??_data_to_row+10,f
  2279  0AC0  3EFF               	addlw	-1
  2280  0AC1  1D03               	skipz
  2281  0AC2  2ABE               	goto	u2095
  2282  0AC3  082A               	movf	??_data_to_row+10,w
  2283  0AC4  0729               	addwf	??_data_to_row+9,w
  2284  0AC5  00AB               	movwf	??_data_to_row+11
  2285  0AC6  082B               	movf	??_data_to_row+11,w
  2286  0AC7  00AF               	movwf	_line3
  2287                           
  2288                           ;led_matrix_ds18b20.c: 90: line2 = ((d_row[13] & mask) << 1) + (d_row[12] & mask) + ((d_
      +                          row[11] & mask) >> 1) +
  2289                           ;led_matrix_ds18b20.c: 91: ((d_row[10] & mask) >> 2) + ((d_row[9] & mask) >> 3) + ((d_ro
      +                          w[8] & mask) >> 4) + ((d_row[7] & mask) >> 5);
  2290  0AC8  0878               	movf	data_to_row@d_row,w
  2291  0AC9  3E0D               	addlw	13
  2292  0ACA  0084               	movwf	4
  2293  0ACB  120A  158A  2000   	fcall	stringdir
  2294  0ACE  0577               	andwf	data_to_row@mask,w
  2295  0ACF  120A  158A  2B59   	ljmp	L8
  2296                           
  2297                           	psect	text4_split_8
  2298  0B59                     L8:	
  2299  0B59  00A0               	movwf	??_data_to_row
  2300  0B5A  3001               	movlw	1
  2301  0B5B                     u2105:	
  2302  0B5B  1003               	clrc
  2303  0B5C  0DA0               	rlf	??_data_to_row,f
  2304  0B5D  3EFF               	addlw	-1
  2305  0B5E  1D03               	skipz
  2306  0B5F  2B5B               	goto	u2105
  2307  0B60  0878               	movf	data_to_row@d_row,w
  2308  0B61  3E0C               	addlw	12
  2309  0B62  0084               	movwf	4
  2310  0B63  120A  158A  2000  120A  158A  	fcall	stringdir
  2311  0B68  0577               	andwf	data_to_row@mask,w
  2312  0B69  0720               	addwf	??_data_to_row,w
  2313  0B6A  00A1               	movwf	??_data_to_row+1
  2314  0B6B  0878               	movf	data_to_row@d_row,w
  2315  0B6C  3E0B               	addlw	11
  2316  0B6D  0084               	movwf	4
  2317  0B6E  120A  158A  2000  120A  158A  	fcall	stringdir
  2318  0B73  0577               	andwf	data_to_row@mask,w
  2319  0B74  00A2               	movwf	??_data_to_row+2
  2320  0B75  1003               	clrc
  2321  0B76  0C22               	rrf	??_data_to_row+2,w
  2322  0B77  0721               	addwf	??_data_to_row+1,w
  2323  0B78  00A3               	movwf	??_data_to_row+3
  2324  0B79  0878               	movf	data_to_row@d_row,w
  2325  0B7A  3E0A               	addlw	10
  2326  0B7B  0084               	movwf	4
  2327  0B7C  120A  158A  2000  120A  158A  	fcall	stringdir
  2328  0B81  0577               	andwf	data_to_row@mask,w
  2329  0B82  00A4               	movwf	??_data_to_row+4
  2330  0B83  3002               	movlw	2
  2331  0B84                     u2115:	
  2332  0B84  1003               	clrc
  2333  0B85  0CA4               	rrf	??_data_to_row+4,f
  2334  0B86  3EFF               	addlw	-1
  2335  0B87  1D03               	skipz
  2336  0B88  2B84               	goto	u2115
  2337  0B89  0824               	movf	??_data_to_row+4,w
  2338  0B8A  0723               	addwf	??_data_to_row+3,w
  2339  0B8B  00A5               	movwf	??_data_to_row+5
  2340  0B8C  0878               	movf	data_to_row@d_row,w
  2341  0B8D  3E09               	addlw	9
  2342  0B8E  0084               	movwf	4
  2343  0B8F  120A  158A  2000  120A  158A  	fcall	stringdir
  2344  0B94  0577               	andwf	data_to_row@mask,w
  2345  0B95  00A6               	movwf	??_data_to_row+6
  2346  0B96  3003               	movlw	3
  2347  0B97                     u2125:	
  2348  0B97  1003               	clrc
  2349  0B98  0CA6               	rrf	??_data_to_row+6,f
  2350  0B99  3EFF               	addlw	-1
  2351  0B9A  1D03               	skipz
  2352  0B9B  2B97               	goto	u2125
  2353  0B9C  0826               	movf	??_data_to_row+6,w
  2354  0B9D  0725               	addwf	??_data_to_row+5,w
  2355  0B9E  00A7               	movwf	??_data_to_row+7
  2356  0B9F  0878               	movf	data_to_row@d_row,w
  2357  0BA0  3E08               	addlw	8
  2358  0BA1  0084               	movwf	4
  2359  0BA2  120A  158A  2000  120A  158A  	fcall	stringdir
  2360  0BA7  0577               	andwf	data_to_row@mask,w
  2361  0BA8  00A8               	movwf	??_data_to_row+8
  2362  0BA9  3004               	movlw	4
  2363  0BAA                     u2135:	
  2364  0BAA  1003               	clrc
  2365  0BAB  0CA8               	rrf	??_data_to_row+8,f
  2366  0BAC  3EFF               	addlw	-1
  2367  0BAD  1D03               	skipz
  2368  0BAE  2BAA               	goto	u2135
  2369  0BAF  0828               	movf	??_data_to_row+8,w
  2370  0BB0  0727               	addwf	??_data_to_row+7,w
  2371  0BB1  00A9               	movwf	??_data_to_row+9
  2372  0BB2  0878               	movf	data_to_row@d_row,w
  2373  0BB3  3E07               	addlw	7
  2374  0BB4  0084               	movwf	4
  2375  0BB5  120A  158A  2000  120A  158A  	fcall	stringdir
  2376  0BBA  0577               	andwf	data_to_row@mask,w
  2377  0BBB  00AA               	movwf	??_data_to_row+10
  2378  0BBC  3005               	movlw	5
  2379  0BBD                     u2145:	
  2380  0BBD  1003               	clrc
  2381  0BBE  0CAA               	rrf	??_data_to_row+10,f
  2382  0BBF  3EFF               	addlw	-1
  2383  0BC0  1D03               	skipz
  2384  0BC1  2BBD               	goto	u2145
  2385  0BC2  082A               	movf	??_data_to_row+10,w
  2386  0BC3  0729               	addwf	??_data_to_row+9,w
  2387  0BC4  00AB               	movwf	??_data_to_row+11
  2388  0BC5  082B               	movf	??_data_to_row+11,w
  2389  0BC6  00AE               	movwf	_line2
  2390                           
  2391                           ;led_matrix_ds18b20.c: 92: line1 = ((d_row[6] & mask) << 1) + (d_row[5] & mask) + ((d_ro
      +                          w[4] & mask) >> 1) +
  2392                           ;led_matrix_ds18b20.c: 93: ((d_row[3] & mask) >> 2) + ((d_row[2] & mask) >> 3) + ((d_row
      +                          [1] & mask) >> 4) + ((d_row[0] & mask) >> 5);
  2393  0BC7  0878               	movf	data_to_row@d_row,w
  2394  0BC8  3E06               	addlw	6
  2395  0BC9  0084               	movwf	4
  2396  0BCA  120A  158A  2000  120A  158A  	fcall	stringdir
  2397  0BCF  0577               	andwf	data_to_row@mask,w
  2398  0BD0  00A0               	movwf	??_data_to_row
  2399  0BD1  3001               	movlw	1
  2400  0BD2                     u2155:	
  2401  0BD2  1003               	clrc
  2402  0BD3  0DA0               	rlf	??_data_to_row,f
  2403  0BD4  3EFF               	addlw	-1
  2404  0BD5  1D03               	skipz
  2405  0BD6  2BD2               	goto	u2155
  2406  0BD7  0878               	movf	data_to_row@d_row,w
  2407  0BD8  3E05               	addlw	5
  2408  0BD9  0084               	movwf	4
  2409  0BDA  120A  158A  2000   	fcall	stringdir
  2410  0BDD  0577               	andwf	data_to_row@mask,w
  2411  0BDE  120A  158A  2F40   	ljmp	L9
  2412                           
  2413                           	psect	text4_split_9
  2414  0F40                     L9:	
  2415  0F40  0720               	addwf	??_data_to_row,w
  2416  0F41  00A1               	movwf	??_data_to_row+1
  2417  0F42  0878               	movf	data_to_row@d_row,w
  2418  0F43  3E04               	addlw	4
  2419  0F44  0084               	movwf	4
  2420  0F45  120A  158A  2000  120A  158A  	fcall	stringdir
  2421  0F4A  0577               	andwf	data_to_row@mask,w
  2422  0F4B  00A2               	movwf	??_data_to_row+2
  2423  0F4C  1003               	clrc
  2424  0F4D  0C22               	rrf	??_data_to_row+2,w
  2425  0F4E  0721               	addwf	??_data_to_row+1,w
  2426  0F4F  00A3               	movwf	??_data_to_row+3
  2427  0F50  0878               	movf	data_to_row@d_row,w
  2428  0F51  3E03               	addlw	3
  2429  0F52  0084               	movwf	4
  2430  0F53  120A  158A  2000  120A  158A  	fcall	stringdir
  2431  0F58  0577               	andwf	data_to_row@mask,w
  2432  0F59  00A4               	movwf	??_data_to_row+4
  2433  0F5A  3002               	movlw	2
  2434  0F5B                     u2165:	
  2435  0F5B  1003               	clrc
  2436  0F5C  0CA4               	rrf	??_data_to_row+4,f
  2437  0F5D  3EFF               	addlw	-1
  2438  0F5E  1D03               	skipz
  2439  0F5F  2F5B               	goto	u2165
  2440  0F60  0824               	movf	??_data_to_row+4,w
  2441  0F61  0723               	addwf	??_data_to_row+3,w
  2442  0F62  00A5               	movwf	??_data_to_row+5
  2443  0F63  0878               	movf	data_to_row@d_row,w
  2444  0F64  3E02               	addlw	2
  2445  0F65  0084               	movwf	4
  2446  0F66  120A  158A  2000  120A  158A  	fcall	stringdir
  2447  0F6B  0577               	andwf	data_to_row@mask,w
  2448  0F6C  00A6               	movwf	??_data_to_row+6
  2449  0F6D  3003               	movlw	3
  2450  0F6E                     u2175:	
  2451  0F6E  1003               	clrc
  2452  0F6F  0CA6               	rrf	??_data_to_row+6,f
  2453  0F70  3EFF               	addlw	-1
  2454  0F71  1D03               	skipz
  2455  0F72  2F6E               	goto	u2175
  2456  0F73  0826               	movf	??_data_to_row+6,w
  2457  0F74  0725               	addwf	??_data_to_row+5,w
  2458  0F75  00A7               	movwf	??_data_to_row+7
  2459  0F76  0878               	movf	data_to_row@d_row,w
  2460  0F77  3E01               	addlw	1
  2461  0F78  0084               	movwf	4
  2462  0F79  120A  158A  2000  120A  158A  	fcall	stringdir
  2463  0F7E  0577               	andwf	data_to_row@mask,w
  2464  0F7F  00A8               	movwf	??_data_to_row+8
  2465  0F80  3004               	movlw	4
  2466  0F81                     u2185:	
  2467  0F81  1003               	clrc
  2468  0F82  0CA8               	rrf	??_data_to_row+8,f
  2469  0F83  3EFF               	addlw	-1
  2470  0F84  1D03               	skipz
  2471  0F85  2F81               	goto	u2185
  2472  0F86  0828               	movf	??_data_to_row+8,w
  2473  0F87  0727               	addwf	??_data_to_row+7,w
  2474  0F88  00A9               	movwf	??_data_to_row+9
  2475  0F89  0878               	movf	data_to_row@d_row,w
  2476  0F8A  0084               	movwf	4
  2477  0F8B  120A  158A  2000  120A  158A  	fcall	stringdir
  2478  0F90  0577               	andwf	data_to_row@mask,w
  2479  0F91  00AA               	movwf	??_data_to_row+10
  2480  0F92  3005               	movlw	5
  2481  0F93                     u2195:	
  2482  0F93  1003               	clrc
  2483  0F94  0CAA               	rrf	??_data_to_row+10,f
  2484  0F95  3EFF               	addlw	-1
  2485  0F96  1D03               	skipz
  2486  0F97  2F93               	goto	u2195
  2487  0F98  082A               	movf	??_data_to_row+10,w
  2488  0F99  0729               	addwf	??_data_to_row+9,w
  2489  0F9A  00AB               	movwf	??_data_to_row+11
  2490  0F9B  082B               	movf	??_data_to_row+11,w
  2491  0F9C  00AD               	movwf	_line1
  2492                           
  2493                           ;led_matrix_ds18b20.c: 94: d_column = line3;
  2494  0F9D  082F               	movf	_line3,w
  2495  0F9E  00A0               	movwf	??_data_to_row
  2496  0F9F  01A1               	clrf	??_data_to_row+1
  2497  0FA0  01A2               	clrf	??_data_to_row+2
  2498  0FA1  0820               	movf	??_data_to_row,w
  2499  0FA2  00FB               	movwf	_d_column
  2500  0FA3  0821               	movf	??_data_to_row+1,w
  2501  0FA4  00FC               	movwf	_d_column+1
  2502  0FA5  0822               	movf	??_data_to_row+2,w
  2503  0FA6  00FD               	movwf	_d_column+2
  2504                           
  2505                           ;led_matrix_ds18b20.c: 95: d_column = (d_column << 8) + line2;
  2506  0FA7  082E               	movf	_line2,w
  2507  0FA8  00A0               	movwf	??_data_to_row
  2508  0FA9  01A1               	clrf	??_data_to_row+1
  2509  0FAA  01A2               	clrf	??_data_to_row+2
  2510  0FAB  087B               	movf	_d_column,w
  2511  0FAC  00A3               	movwf	??_data_to_row+3
  2512  0FAD  087C               	movf	_d_column+1,w
  2513  0FAE  00A4               	movwf	??_data_to_row+4
  2514  0FAF  087D               	movf	_d_column+2,w
  2515  0FB0  00A5               	movwf	??_data_to_row+5
  2516  0FB1  3008               	movlw	8
  2517  0FB2                     u2205:	
  2518  0FB2  1003               	clrc
  2519  0FB3  0DA3               	rlf	??_data_to_row+3,f
  2520  0FB4  0DA4               	rlf	??_data_to_row+4,f
  2521  0FB5  0DA5               	rlf	??_data_to_row+5,f
  2522  0FB6  3EFF               	addlw	-1
  2523  0FB7  1D03               	skipz
  2524  0FB8  2FB2               	goto	u2205
  2525  0FB9  0823               	movf	??_data_to_row+3,w
  2526  0FBA  07A0               	addwf	??_data_to_row,f
  2527  0FBB  0824               	movf	??_data_to_row+4,w
  2528  0FBC  1803               	skipnc
  2529  0FBD  0F24               	incfsz	??_data_to_row+4,w
  2530  0FBE  2FC0               	goto	u2211
  2531  0FBF  2FC1               	goto	u2212
  2532  0FC0                     u2211:	
  2533  0FC0  07A1               	addwf	??_data_to_row+1,f
  2534  0FC1                     u2212:	
  2535  0FC1  0825               	movf	??_data_to_row+5,w
  2536  0FC2  1803               	skipnc
  2537  0FC3  0F25               	incfsz	??_data_to_row+5,w
  2538  0FC4  2FC6               	goto	u2213
  2539  0FC5  2FC7               	goto	u2214
  2540  0FC6                     u2213:	
  2541  0FC6  07A2               	addwf	??_data_to_row+2,f
  2542  0FC7                     u2214:	
  2543  0FC7  0820               	movf	??_data_to_row,w
  2544  0FC8  00FB               	movwf	_d_column
  2545  0FC9  0821               	movf	??_data_to_row+1,w
  2546  0FCA  00FC               	movwf	_d_column+1
  2547  0FCB  0822               	movf	??_data_to_row+2,w
  2548  0FCC  00FD               	movwf	_d_column+2
  2549                           
  2550                           ;led_matrix_ds18b20.c: 96: d_column = (d_column << 8) + line1;
  2551  0FCD  082D               	movf	_line1,w
  2552  0FCE  00A0               	movwf	??_data_to_row
  2553  0FCF  01A1               	clrf	??_data_to_row+1
  2554  0FD0  01A2               	clrf	??_data_to_row+2
  2555  0FD1  087B               	movf	_d_column,w
  2556  0FD2  00A3               	movwf	??_data_to_row+3
  2557  0FD3  087C               	movf	_d_column+1,w
  2558  0FD4  00A4               	movwf	??_data_to_row+4
  2559  0FD5  087D               	movf	_d_column+2,w
  2560  0FD6  00A5               	movwf	??_data_to_row+5
  2561  0FD7  3008               	movlw	8
  2562  0FD8                     u2225:	
  2563  0FD8  1003               	clrc
  2564  0FD9  0DA3               	rlf	??_data_to_row+3,f
  2565  0FDA  0DA4               	rlf	??_data_to_row+4,f
  2566  0FDB  0DA5               	rlf	??_data_to_row+5,f
  2567  0FDC  3EFF               	addlw	-1
  2568  0FDD  1D03               	skipz
  2569  0FDE  2FD8               	goto	u2225
  2570  0FDF  0823               	movf	??_data_to_row+3,w
  2571  0FE0  07A0               	addwf	??_data_to_row,f
  2572  0FE1  0824               	movf	??_data_to_row+4,w
  2573  0FE2  1803               	skipnc
  2574  0FE3  0F24               	incfsz	??_data_to_row+4,w
  2575  0FE4  2FE6               	goto	u2231
  2576  0FE5  2FE7               	goto	u2232
  2577  0FE6                     u2231:	
  2578  0FE6  07A1               	addwf	??_data_to_row+1,f
  2579  0FE7                     u2232:	
  2580  0FE7  0825               	movf	??_data_to_row+5,w
  2581  0FE8  1803               	skipnc
  2582  0FE9  0F25               	incfsz	??_data_to_row+5,w
  2583  0FEA  2FEC               	goto	u2233
  2584  0FEB  2FED               	goto	u2234
  2585  0FEC                     u2233:	
  2586  0FEC  07A2               	addwf	??_data_to_row+2,f
  2587  0FED                     u2234:	
  2588  0FED  0820               	movf	??_data_to_row,w
  2589  0FEE  00FB               	movwf	_d_column
  2590  0FEF  0821               	movf	??_data_to_row+1,w
  2591  0FF0  00FC               	movwf	_d_column+1
  2592  0FF1  0822               	movf	??_data_to_row+2,w
  2593  0FF2  00FD               	movwf	_d_column+2
  2594                           
  2595                           ;led_matrix_ds18b20.c: 97: data_to_column(d_column);
  2596  0FF3  087B               	movf	_d_column,w
  2597  0FF4  00F0               	movwf	data_to_column@d_col
  2598  0FF5  087C               	movf	_d_column+1,w
  2599  0FF6  00F1               	movwf	data_to_column@d_col+1
  2600  0FF7  087D               	movf	_d_column+2,w
  2601  0FF8  00F2               	movwf	data_to_column@d_col+2
  2602  0FF9  160A  118A  27A5   	fcall	_data_to_column
  2603                           
  2604                           ;led_matrix_ds18b20.c: 99: mask = 0x10;
  2605  0FFC  3010               	movlw	16
  2606  0FFD  120A  158A  2E09   	ljmp	L10
  2607                           
  2608                           	psect	text4_split_10
  2609  0E09                     L10:	
  2610  0E09  1283               	bcf	3,5	;RP0=0, select bank0
  2611  0E0A  1303               	bcf	3,6	;RP1=0, select bank0
  2612  0E0B  00A0               	movwf	??_data_to_row
  2613  0E0C  0820               	movf	??_data_to_row,w
  2614  0E0D  00F7               	movwf	data_to_row@mask
  2615                           
  2616                           ;led_matrix_ds18b20.c: 100: line3 = ((d_row[20] & mask) << 2) + ((d_row[19] & mask) << 1
      +                          ) + (d_row[18] & mask) +
  2617                           ;led_matrix_ds18b20.c: 101: ((d_row[17] & mask) >> 1) + ((d_row[16] & mask) >> 2) + ((d_
      +                          row[15] & mask) >> 3) + ((d_row[14] & mask) >> 4);
  2618  0E0E  0878               	movf	data_to_row@d_row,w
  2619  0E0F  3E14               	addlw	20
  2620  0E10  0084               	movwf	4
  2621  0E11  120A  158A  2000  120A  158A  	fcall	stringdir
  2622  0E16  0577               	andwf	data_to_row@mask,w
  2623  0E17  00A0               	movwf	??_data_to_row
  2624  0E18  3002               	movlw	2
  2625  0E19                     u2245:	
  2626  0E19  1003               	clrc
  2627  0E1A  0DA0               	rlf	??_data_to_row,f
  2628  0E1B  3EFF               	addlw	-1
  2629  0E1C  1D03               	skipz
  2630  0E1D  2E19               	goto	u2245
  2631  0E1E  0878               	movf	data_to_row@d_row,w
  2632  0E1F  3E13               	addlw	19
  2633  0E20  0084               	movwf	4
  2634  0E21  120A  158A  2000  120A  158A  	fcall	stringdir
  2635  0E26  0577               	andwf	data_to_row@mask,w
  2636  0E27  00A1               	movwf	??_data_to_row+1
  2637  0E28  0721               	addwf	??_data_to_row+1,w
  2638  0E29  0720               	addwf	??_data_to_row,w
  2639  0E2A  00A2               	movwf	??_data_to_row+2
  2640  0E2B  0878               	movf	data_to_row@d_row,w
  2641  0E2C  3E12               	addlw	18
  2642  0E2D  0084               	movwf	4
  2643  0E2E  120A  158A  2000  120A  158A  	fcall	stringdir
  2644  0E33  0577               	andwf	data_to_row@mask,w
  2645  0E34  0722               	addwf	??_data_to_row+2,w
  2646  0E35  00A3               	movwf	??_data_to_row+3
  2647  0E36  0878               	movf	data_to_row@d_row,w
  2648  0E37  3E11               	addlw	17
  2649  0E38  0084               	movwf	4
  2650  0E39  120A  158A  2000  120A  158A  	fcall	stringdir
  2651  0E3E  0577               	andwf	data_to_row@mask,w
  2652  0E3F  00A4               	movwf	??_data_to_row+4
  2653  0E40  1003               	clrc
  2654  0E41  0C24               	rrf	??_data_to_row+4,w
  2655  0E42  0723               	addwf	??_data_to_row+3,w
  2656  0E43  00A5               	movwf	??_data_to_row+5
  2657  0E44  0878               	movf	data_to_row@d_row,w
  2658  0E45  3E10               	addlw	16
  2659  0E46  0084               	movwf	4
  2660  0E47  120A  158A  2000  120A  158A  	fcall	stringdir
  2661  0E4C  0577               	andwf	data_to_row@mask,w
  2662  0E4D  00A6               	movwf	??_data_to_row+6
  2663  0E4E  3002               	movlw	2
  2664  0E4F                     u2255:	
  2665  0E4F  1003               	clrc
  2666  0E50  0CA6               	rrf	??_data_to_row+6,f
  2667  0E51  3EFF               	addlw	-1
  2668  0E52  1D03               	skipz
  2669  0E53  2E4F               	goto	u2255
  2670  0E54  0826               	movf	??_data_to_row+6,w
  2671  0E55  0725               	addwf	??_data_to_row+5,w
  2672  0E56  00A7               	movwf	??_data_to_row+7
  2673  0E57  0878               	movf	data_to_row@d_row,w
  2674  0E58  3E0F               	addlw	15
  2675  0E59  0084               	movwf	4
  2676  0E5A  120A  158A  2000  120A  158A  	fcall	stringdir
  2677  0E5F  0577               	andwf	data_to_row@mask,w
  2678  0E60  00A8               	movwf	??_data_to_row+8
  2679  0E61  3003               	movlw	3
  2680  0E62                     u2265:	
  2681  0E62  1003               	clrc
  2682  0E63  0CA8               	rrf	??_data_to_row+8,f
  2683  0E64  3EFF               	addlw	-1
  2684  0E65  1D03               	skipz
  2685  0E66  2E62               	goto	u2265
  2686  0E67  0828               	movf	??_data_to_row+8,w
  2687  0E68  0727               	addwf	??_data_to_row+7,w
  2688  0E69  00A9               	movwf	??_data_to_row+9
  2689  0E6A  0878               	movf	data_to_row@d_row,w
  2690  0E6B  3E0E               	addlw	14
  2691  0E6C  0084               	movwf	4
  2692  0E6D  120A  158A  2000  120A  158A  	fcall	stringdir
  2693  0E72  0577               	andwf	data_to_row@mask,w
  2694  0E73  00AA               	movwf	??_data_to_row+10
  2695  0E74  3004               	movlw	4
  2696  0E75                     u2275:	
  2697  0E75  1003               	clrc
  2698  0E76  0CAA               	rrf	??_data_to_row+10,f
  2699  0E77  3EFF               	addlw	-1
  2700  0E78  1D03               	skipz
  2701  0E79  2E75               	goto	u2275
  2702  0E7A  082A               	movf	??_data_to_row+10,w
  2703  0E7B  0729               	addwf	??_data_to_row+9,w
  2704  0E7C  00AB               	movwf	??_data_to_row+11
  2705  0E7D  082B               	movf	??_data_to_row+11,w
  2706  0E7E  00AF               	movwf	_line3
  2707                           
  2708                           ;led_matrix_ds18b20.c: 102: line2 = ((d_row[13] & mask) << 2) + ((d_row[12] & mask) << 1
      +                          ) + (d_row[11] & mask) +
  2709                           ;led_matrix_ds18b20.c: 103: ((d_row[10] & mask) >> 1) + ((d_row[9] & mask) >> 2) + ((d_r
      +                          ow[8] & mask) >> 3) + ((d_row[7] & mask) >> 4);
  2710  0E7F  0878               	movf	data_to_row@d_row,w
  2711  0E80  3E0D               	addlw	13
  2712  0E81  0084               	movwf	4
  2713  0E82  120A  158A  2000  120A  158A  	fcall	stringdir
  2714  0E87  0577               	andwf	data_to_row@mask,w
  2715  0E88  00A0               	movwf	??_data_to_row
  2716  0E89  3002               	movlw	2
  2717  0E8A                     u2285:	
  2718  0E8A  1003               	clrc
  2719  0E8B  0DA0               	rlf	??_data_to_row,f
  2720  0E8C  3EFF               	addlw	-1
  2721  0E8D  1D03               	skipz
  2722  0E8E  2E8A               	goto	u2285
  2723  0E8F  0878               	movf	data_to_row@d_row,w
  2724  0E90  3E0C               	addlw	12
  2725  0E91  0084               	movwf	4
  2726  0E92  120A  158A  2000   	fcall	stringdir
  2727  0E95  0577               	andwf	data_to_row@mask,w
  2728  0E96  120A  158A  2CF2   	ljmp	L11
  2729                           
  2730                           	psect	text4_split_11
  2731  0CF2                     L11:	
  2732  0CF2  00A1               	movwf	??_data_to_row+1
  2733  0CF3  0721               	addwf	??_data_to_row+1,w
  2734  0CF4  0720               	addwf	??_data_to_row,w
  2735  0CF5  00A2               	movwf	??_data_to_row+2
  2736  0CF6  0878               	movf	data_to_row@d_row,w
  2737  0CF7  3E0B               	addlw	11
  2738  0CF8  0084               	movwf	4
  2739  0CF9  120A  158A  2000  120A  158A  	fcall	stringdir
  2740  0CFE  0577               	andwf	data_to_row@mask,w
  2741  0CFF  0722               	addwf	??_data_to_row+2,w
  2742  0D00  00A3               	movwf	??_data_to_row+3
  2743  0D01  0878               	movf	data_to_row@d_row,w
  2744  0D02  3E0A               	addlw	10
  2745  0D03  0084               	movwf	4
  2746  0D04  120A  158A  2000  120A  158A  	fcall	stringdir
  2747  0D09  0577               	andwf	data_to_row@mask,w
  2748  0D0A  00A4               	movwf	??_data_to_row+4
  2749  0D0B  1003               	clrc
  2750  0D0C  0C24               	rrf	??_data_to_row+4,w
  2751  0D0D  0723               	addwf	??_data_to_row+3,w
  2752  0D0E  00A5               	movwf	??_data_to_row+5
  2753  0D0F  0878               	movf	data_to_row@d_row,w
  2754  0D10  3E09               	addlw	9
  2755  0D11  0084               	movwf	4
  2756  0D12  120A  158A  2000  120A  158A  	fcall	stringdir
  2757  0D17  0577               	andwf	data_to_row@mask,w
  2758  0D18  00A6               	movwf	??_data_to_row+6
  2759  0D19  3002               	movlw	2
  2760  0D1A                     u2295:	
  2761  0D1A  1003               	clrc
  2762  0D1B  0CA6               	rrf	??_data_to_row+6,f
  2763  0D1C  3EFF               	addlw	-1
  2764  0D1D  1D03               	skipz
  2765  0D1E  2D1A               	goto	u2295
  2766  0D1F  0826               	movf	??_data_to_row+6,w
  2767  0D20  0725               	addwf	??_data_to_row+5,w
  2768  0D21  00A7               	movwf	??_data_to_row+7
  2769  0D22  0878               	movf	data_to_row@d_row,w
  2770  0D23  3E08               	addlw	8
  2771  0D24  0084               	movwf	4
  2772  0D25  120A  158A  2000  120A  158A  	fcall	stringdir
  2773  0D2A  0577               	andwf	data_to_row@mask,w
  2774  0D2B  00A8               	movwf	??_data_to_row+8
  2775  0D2C  3003               	movlw	3
  2776  0D2D                     u2305:	
  2777  0D2D  1003               	clrc
  2778  0D2E  0CA8               	rrf	??_data_to_row+8,f
  2779  0D2F  3EFF               	addlw	-1
  2780  0D30  1D03               	skipz
  2781  0D31  2D2D               	goto	u2305
  2782  0D32  0828               	movf	??_data_to_row+8,w
  2783  0D33  0727               	addwf	??_data_to_row+7,w
  2784  0D34  00A9               	movwf	??_data_to_row+9
  2785  0D35  0878               	movf	data_to_row@d_row,w
  2786  0D36  3E07               	addlw	7
  2787  0D37  0084               	movwf	4
  2788  0D38  120A  158A  2000  120A  158A  	fcall	stringdir
  2789  0D3D  0577               	andwf	data_to_row@mask,w
  2790  0D3E  00AA               	movwf	??_data_to_row+10
  2791  0D3F  3004               	movlw	4
  2792  0D40                     u2315:	
  2793  0D40  1003               	clrc
  2794  0D41  0CAA               	rrf	??_data_to_row+10,f
  2795  0D42  3EFF               	addlw	-1
  2796  0D43  1D03               	skipz
  2797  0D44  2D40               	goto	u2315
  2798  0D45  082A               	movf	??_data_to_row+10,w
  2799  0D46  0729               	addwf	??_data_to_row+9,w
  2800  0D47  00AB               	movwf	??_data_to_row+11
  2801  0D48  082B               	movf	??_data_to_row+11,w
  2802  0D49  00AE               	movwf	_line2
  2803                           
  2804                           ;led_matrix_ds18b20.c: 104: line1 = ((d_row[6] & mask) << 2) + ((d_row[5] & mask) << 1) 
      +                          + (d_row[4] & mask) +
  2805                           ;led_matrix_ds18b20.c: 105: ((d_row[3] & mask) >> 1) + ((d_row[2] & mask) >> 2) + ((d_ro
      +                          w[1] & mask) >> 3) + ((d_row[0] & mask) >> 4);
  2806  0D4A  0878               	movf	data_to_row@d_row,w
  2807  0D4B  3E06               	addlw	6
  2808  0D4C  0084               	movwf	4
  2809  0D4D  120A  158A  2000  120A  158A  	fcall	stringdir
  2810  0D52  0577               	andwf	data_to_row@mask,w
  2811  0D53  00A0               	movwf	??_data_to_row
  2812  0D54  3002               	movlw	2
  2813  0D55                     u2325:	
  2814  0D55  1003               	clrc
  2815  0D56  0DA0               	rlf	??_data_to_row,f
  2816  0D57  3EFF               	addlw	-1
  2817  0D58  1D03               	skipz
  2818  0D59  2D55               	goto	u2325
  2819  0D5A  0878               	movf	data_to_row@d_row,w
  2820  0D5B  3E05               	addlw	5
  2821  0D5C  0084               	movwf	4
  2822  0D5D  120A  158A  2000  120A  158A  	fcall	stringdir
  2823  0D62  0577               	andwf	data_to_row@mask,w
  2824  0D63  00A1               	movwf	??_data_to_row+1
  2825  0D64  0721               	addwf	??_data_to_row+1,w
  2826  0D65  0720               	addwf	??_data_to_row,w
  2827  0D66  00A2               	movwf	??_data_to_row+2
  2828  0D67  0878               	movf	data_to_row@d_row,w
  2829  0D68  3E04               	addlw	4
  2830  0D69  0084               	movwf	4
  2831  0D6A  120A  158A  2000  120A  158A  	fcall	stringdir
  2832  0D6F  0577               	andwf	data_to_row@mask,w
  2833  0D70  0722               	addwf	??_data_to_row+2,w
  2834  0D71  00A3               	movwf	??_data_to_row+3
  2835  0D72  0878               	movf	data_to_row@d_row,w
  2836  0D73  3E03               	addlw	3
  2837  0D74  0084               	movwf	4
  2838  0D75  120A  158A  2000   	fcall	stringdir
  2839  0D78  0577               	andwf	data_to_row@mask,w
  2840  0D79  120A  118A  2845   	ljmp	L12
  2841                           
  2842                           	psect	text4_split_12
  2843  0045                     L12:	
  2844  0045  00A4               	movwf	??_data_to_row+4
  2845  0046  1003               	clrc
  2846  0047  0C24               	rrf	??_data_to_row+4,w
  2847  0048  0723               	addwf	??_data_to_row+3,w
  2848  0049  00A5               	movwf	??_data_to_row+5
  2849  004A  0878               	movf	data_to_row@d_row,w
  2850  004B  3E02               	addlw	2
  2851  004C  0084               	movwf	4
  2852  004D  120A  158A  2000  120A  118A  	fcall	stringdir
  2853  0052  0577               	andwf	data_to_row@mask,w
  2854  0053  00A6               	movwf	??_data_to_row+6
  2855  0054  3002               	movlw	2
  2856  0055                     u2335:	
  2857  0055  1003               	clrc
  2858  0056  0CA6               	rrf	??_data_to_row+6,f
  2859  0057  3EFF               	addlw	-1
  2860  0058  1D03               	skipz
  2861  0059  2855               	goto	u2335
  2862  005A  0826               	movf	??_data_to_row+6,w
  2863  005B  0725               	addwf	??_data_to_row+5,w
  2864  005C  00A7               	movwf	??_data_to_row+7
  2865  005D  0878               	movf	data_to_row@d_row,w
  2866  005E  3E01               	addlw	1
  2867  005F  0084               	movwf	4
  2868  0060  120A  158A  2000  120A  118A  	fcall	stringdir
  2869  0065  0577               	andwf	data_to_row@mask,w
  2870  0066  00A8               	movwf	??_data_to_row+8
  2871  0067  3003               	movlw	3
  2872  0068                     u2345:	
  2873  0068  1003               	clrc
  2874  0069  0CA8               	rrf	??_data_to_row+8,f
  2875  006A  3EFF               	addlw	-1
  2876  006B  1D03               	skipz
  2877  006C  2868               	goto	u2345
  2878  006D  0828               	movf	??_data_to_row+8,w
  2879  006E  0727               	addwf	??_data_to_row+7,w
  2880  006F  00A9               	movwf	??_data_to_row+9
  2881  0070  0878               	movf	data_to_row@d_row,w
  2882  0071  0084               	movwf	4
  2883  0072  120A  158A  2000  120A  118A  	fcall	stringdir
  2884  0077  0577               	andwf	data_to_row@mask,w
  2885  0078  00AA               	movwf	??_data_to_row+10
  2886  0079  3004               	movlw	4
  2887  007A                     u2355:	
  2888  007A  1003               	clrc
  2889  007B  0CAA               	rrf	??_data_to_row+10,f
  2890  007C  3EFF               	addlw	-1
  2891  007D  1D03               	skipz
  2892  007E  287A               	goto	u2355
  2893  007F  082A               	movf	??_data_to_row+10,w
  2894  0080  0729               	addwf	??_data_to_row+9,w
  2895  0081  00AB               	movwf	??_data_to_row+11
  2896  0082  082B               	movf	??_data_to_row+11,w
  2897  0083  00AD               	movwf	_line1
  2898                           
  2899                           ;led_matrix_ds18b20.c: 106: d_column = line3;
  2900  0084  082F               	movf	_line3,w
  2901  0085  00A0               	movwf	??_data_to_row
  2902  0086  01A1               	clrf	??_data_to_row+1
  2903  0087  01A2               	clrf	??_data_to_row+2
  2904  0088  0820               	movf	??_data_to_row,w
  2905  0089  00FB               	movwf	_d_column
  2906  008A  0821               	movf	??_data_to_row+1,w
  2907  008B  00FC               	movwf	_d_column+1
  2908  008C  0822               	movf	??_data_to_row+2,w
  2909  008D  00FD               	movwf	_d_column+2
  2910                           
  2911                           ;led_matrix_ds18b20.c: 107: d_column = (d_column << 8) + line2;
  2912  008E  082E               	movf	_line2,w
  2913  008F  00A0               	movwf	??_data_to_row
  2914  0090  01A1               	clrf	??_data_to_row+1
  2915  0091  01A2               	clrf	??_data_to_row+2
  2916  0092  087B               	movf	_d_column,w
  2917  0093  00A3               	movwf	??_data_to_row+3
  2918  0094  087C               	movf	_d_column+1,w
  2919  0095  00A4               	movwf	??_data_to_row+4
  2920  0096  087D               	movf	_d_column+2,w
  2921  0097  00A5               	movwf	??_data_to_row+5
  2922  0098  3008               	movlw	8
  2923  0099                     u2365:	
  2924  0099  1003               	clrc
  2925  009A  0DA3               	rlf	??_data_to_row+3,f
  2926  009B  0DA4               	rlf	??_data_to_row+4,f
  2927  009C  0DA5               	rlf	??_data_to_row+5,f
  2928  009D  3EFF               	addlw	-1
  2929  009E  1D03               	skipz
  2930  009F  2899               	goto	u2365
  2931  00A0  0823               	movf	??_data_to_row+3,w
  2932  00A1  07A0               	addwf	??_data_to_row,f
  2933  00A2  0824               	movf	??_data_to_row+4,w
  2934  00A3  1803               	skipnc
  2935  00A4  0F24               	incfsz	??_data_to_row+4,w
  2936  00A5  28A7               	goto	u2371
  2937  00A6  28A8               	goto	u2372
  2938  00A7                     u2371:	
  2939  00A7  07A1               	addwf	??_data_to_row+1,f
  2940  00A8                     u2372:	
  2941  00A8  0825               	movf	??_data_to_row+5,w
  2942  00A9  1803               	skipnc
  2943  00AA  0F25               	incfsz	??_data_to_row+5,w
  2944  00AB  28AD               	goto	u2373
  2945  00AC  28AE               	goto	u2374
  2946  00AD                     u2373:	
  2947  00AD  07A2               	addwf	??_data_to_row+2,f
  2948  00AE                     u2374:	
  2949  00AE  0820               	movf	??_data_to_row,w
  2950  00AF  00FB               	movwf	_d_column
  2951  00B0  0821               	movf	??_data_to_row+1,w
  2952  00B1  00FC               	movwf	_d_column+1
  2953  00B2  0822               	movf	??_data_to_row+2,w
  2954  00B3  00FD               	movwf	_d_column+2
  2955                           
  2956                           ;led_matrix_ds18b20.c: 108: d_column = (d_column << 8) + line1;
  2957  00B4  082D               	movf	_line1,w
  2958  00B5  00A0               	movwf	??_data_to_row
  2959  00B6  01A1               	clrf	??_data_to_row+1
  2960  00B7  01A2               	clrf	??_data_to_row+2
  2961  00B8  087B               	movf	_d_column,w
  2962  00B9  00A3               	movwf	??_data_to_row+3
  2963  00BA  087C               	movf	_d_column+1,w
  2964  00BB  00A4               	movwf	??_data_to_row+4
  2965  00BC  087D               	movf	_d_column+2,w
  2966  00BD  00A5               	movwf	??_data_to_row+5
  2967  00BE  3008               	movlw	8
  2968  00BF                     u2385:	
  2969  00BF  1003               	clrc
  2970  00C0  0DA3               	rlf	??_data_to_row+3,f
  2971  00C1  0DA4               	rlf	??_data_to_row+4,f
  2972  00C2  0DA5               	rlf	??_data_to_row+5,f
  2973  00C3  3EFF               	addlw	-1
  2974  00C4  1D03               	skipz
  2975  00C5  28BF               	goto	u2385
  2976  00C6  0823               	movf	??_data_to_row+3,w
  2977  00C7  07A0               	addwf	??_data_to_row,f
  2978  00C8  0824               	movf	??_data_to_row+4,w
  2979  00C9  1803               	skipnc
  2980  00CA  0F24               	incfsz	??_data_to_row+4,w
  2981  00CB  28CD               	goto	u2391
  2982  00CC  28CE               	goto	u2392
  2983  00CD                     u2391:	
  2984  00CD  07A1               	addwf	??_data_to_row+1,f
  2985  00CE                     u2392:	
  2986  00CE  0825               	movf	??_data_to_row+5,w
  2987  00CF  1803               	skipnc
  2988  00D0  0F25               	incfsz	??_data_to_row+5,w
  2989  00D1  28D3               	goto	u2393
  2990  00D2  28D4               	goto	u2394
  2991  00D3                     u2393:	
  2992  00D3  07A2               	addwf	??_data_to_row+2,f
  2993  00D4                     u2394:	
  2994  00D4  0820               	movf	??_data_to_row,w
  2995  00D5  00FB               	movwf	_d_column
  2996  00D6  0821               	movf	??_data_to_row+1,w
  2997  00D7  00FC               	movwf	_d_column+1
  2998  00D8  0822               	movf	??_data_to_row+2,w
  2999  00D9  00FD               	movwf	_d_column+2
  3000                           
  3001                           ;led_matrix_ds18b20.c: 109: data_to_column(d_column);
  3002  00DA  087B               	movf	_d_column,w
  3003  00DB  00F0               	movwf	data_to_column@d_col
  3004  00DC  087C               	movf	_d_column+1,w
  3005  00DD  00F1               	movwf	data_to_column@d_col+1
  3006  00DE  087D               	movf	_d_column+2,w
  3007  00DF  00F2               	movwf	data_to_column@d_col+2
  3008  00E0  160A  118A  27A5  120A  118A  	fcall	_data_to_column
  3009                           
  3010                           ;led_matrix_ds18b20.c: 111: mask = 0x08;
  3011  00E5  3008               	movlw	8
  3012  00E6  1283               	bcf	3,5	;RP0=0, select bank0
  3013  00E7  1303               	bcf	3,6	;RP1=0, select bank0
  3014  00E8  00A0               	movwf	??_data_to_row
  3015  00E9  0820               	movf	??_data_to_row,w
  3016  00EA  00F7               	movwf	data_to_row@mask
  3017                           
  3018                           ;led_matrix_ds18b20.c: 112: line3 = ((d_row[20] & mask) << 3) + ((d_row[19] & mask) << 2
      +                          ) + ((d_row[18] & mask) << 1) +
  3019                           ;led_matrix_ds18b20.c: 113: (d_row[17] & mask) + ((d_row[16] & mask) >> 1) + ((d_row[15]
      +                           & mask) >> 2) + ((d_row[14] & mask) >> 3);
  3020  00EB  0878               	movf	data_to_row@d_row,w
  3021  00EC  3E14               	addlw	20
  3022  00ED  0084               	movwf	4
  3023  00EE  120A  158A  2000  120A  118A  	fcall	stringdir
  3024  00F3  0577               	andwf	data_to_row@mask,w
  3025  00F4  00A0               	movwf	??_data_to_row
  3026  00F5  3003               	movlw	3
  3027  00F6                     u2405:	
  3028  00F6  1003               	clrc
  3029  00F7  0DA0               	rlf	??_data_to_row,f
  3030  00F8  3EFF               	addlw	-1
  3031  00F9  1D03               	skipz
  3032  00FA  28F6               	goto	u2405
  3033  00FB  0878               	movf	data_to_row@d_row,w
  3034  00FC  3E13               	addlw	19
  3035  00FD  0084               	movwf	4
  3036  00FE  120A  158A  2000  120A  118A  	fcall	stringdir
  3037  0103  0577               	andwf	data_to_row@mask,w
  3038  0104  00A1               	movwf	??_data_to_row+1
  3039  0105  3001               	movlw	1
  3040  0106                     u2415:	
  3041  0106  1003               	clrc
  3042  0107  0DA1               	rlf	??_data_to_row+1,f
  3043  0108  3EFF               	addlw	-1
  3044  0109  1D03               	skipz
  3045  010A  2906               	goto	u2415
  3046  010B  1003               	clrc
  3047  010C  0D21               	rlf	??_data_to_row+1,w
  3048  010D  0720               	addwf	??_data_to_row,w
  3049  010E  00A2               	movwf	??_data_to_row+2
  3050  010F  0878               	movf	data_to_row@d_row,w
  3051  0110  3E12               	addlw	18
  3052  0111  0084               	movwf	4
  3053  0112  120A  158A  2000  120A  118A  	fcall	stringdir
  3054  0117  0577               	andwf	data_to_row@mask,w
  3055  0118  00A3               	movwf	??_data_to_row+3
  3056  0119  0723               	addwf	??_data_to_row+3,w
  3057  011A  0722               	addwf	??_data_to_row+2,w
  3058  011B  00A4               	movwf	??_data_to_row+4
  3059  011C  0878               	movf	data_to_row@d_row,w
  3060  011D  3E11               	addlw	17
  3061  011E  0084               	movwf	4
  3062  011F  120A  158A  2000  120A  118A  	fcall	stringdir
  3063  0124  0577               	andwf	data_to_row@mask,w
  3064  0125  0724               	addwf	??_data_to_row+4,w
  3065  0126  00A5               	movwf	??_data_to_row+5
  3066  0127  0878               	movf	data_to_row@d_row,w
  3067  0128  3E10               	addlw	16
  3068  0129  0084               	movwf	4
  3069  012A  120A  158A  2000  120A  118A  	fcall	stringdir
  3070  012F  0577               	andwf	data_to_row@mask,w
  3071  0130  00A6               	movwf	??_data_to_row+6
  3072  0131  1003               	clrc
  3073  0132  0C26               	rrf	??_data_to_row+6,w
  3074  0133  0725               	addwf	??_data_to_row+5,w
  3075  0134  00A7               	movwf	??_data_to_row+7
  3076  0135  0878               	movf	data_to_row@d_row,w
  3077  0136  3E0F               	addlw	15
  3078  0137  0084               	movwf	4
  3079  0138  120A  158A  2000  120A  118A  	fcall	stringdir
  3080  013D  0577               	andwf	data_to_row@mask,w
  3081  013E  00A8               	movwf	??_data_to_row+8
  3082  013F  3002               	movlw	2
  3083  0140                     u2425:	
  3084  0140  1003               	clrc
  3085  0141  0CA8               	rrf	??_data_to_row+8,f
  3086  0142  3EFF               	addlw	-1
  3087  0143  1D03               	skipz
  3088  0144  2940               	goto	u2425
  3089  0145  0828               	movf	??_data_to_row+8,w
  3090  0146  0727               	addwf	??_data_to_row+7,w
  3091  0147  00A9               	movwf	??_data_to_row+9
  3092  0148  0878               	movf	data_to_row@d_row,w
  3093  0149  3E0E               	addlw	14
  3094  014A  0084               	movwf	4
  3095  014B  120A  158A  2000  120A  118A  	fcall	stringdir
  3096  0150  0577               	andwf	data_to_row@mask,w
  3097  0151  00AA               	movwf	??_data_to_row+10
  3098  0152  3003               	movlw	3
  3099  0153                     u2435:	
  3100  0153  1003               	clrc
  3101  0154  0CAA               	rrf	??_data_to_row+10,f
  3102  0155  3EFF               	addlw	-1
  3103  0156  1D03               	skipz
  3104  0157  2953               	goto	u2435
  3105  0158  082A               	movf	??_data_to_row+10,w
  3106  0159  0729               	addwf	??_data_to_row+9,w
  3107  015A  00AB               	movwf	??_data_to_row+11
  3108  015B  082B               	movf	??_data_to_row+11,w
  3109  015C  00AF               	movwf	_line3
  3110                           
  3111                           ;led_matrix_ds18b20.c: 114: line2 = ((d_row[13] & mask) << 3) + ((d_row[12] & mask) << 2
      +                          ) + ((d_row[11] & mask) << 1) +
  3112                           ;led_matrix_ds18b20.c: 115: (d_row[10] & mask) + ((d_row[9] & mask) >> 1) + ((d_row[8] &
      +                           mask) >> 2) + ((d_row[7] & mask) >> 3);
  3113  015D  0878               	movf	data_to_row@d_row,w
  3114  015E  3E0D               	addlw	13
  3115  015F  0084               	movwf	4
  3116  0160  120A  158A  2000  120A  118A  	fcall	stringdir
  3117  0165  0577               	andwf	data_to_row@mask,w
  3118  0166  00A0               	movwf	??_data_to_row
  3119  0167  3003               	movlw	3
  3120  0168                     u2445:	
  3121  0168  1003               	clrc
  3122  0169  0DA0               	rlf	??_data_to_row,f
  3123  016A  3EFF               	addlw	-1
  3124  016B  1D03               	skipz
  3125  016C  2968               	goto	u2445
  3126  016D  0878               	movf	data_to_row@d_row,w
  3127  016E  3E0C               	addlw	12
  3128  016F  0084               	movwf	4
  3129  0170  120A  158A  2000  120A  118A  	fcall	stringdir
  3130  0175  0577               	andwf	data_to_row@mask,w
  3131  0176  00A1               	movwf	??_data_to_row+1
  3132  0177  3001               	movlw	1
  3133  0178                     u2455:	
  3134  0178  1003               	clrc
  3135  0179  0DA1               	rlf	??_data_to_row+1,f
  3136  017A  3EFF               	addlw	-1
  3137  017B  1D03               	skipz
  3138  017C  2978               	goto	u2455
  3139  017D  1003               	clrc
  3140  017E  0D21               	rlf	??_data_to_row+1,w
  3141  017F  0720               	addwf	??_data_to_row,w
  3142  0180  00A2               	movwf	??_data_to_row+2
  3143  0181  0878               	movf	data_to_row@d_row,w
  3144  0182  3E0B               	addlw	11
  3145  0183  0084               	movwf	4
  3146  0184  120A  158A  2000  120A  118A  	fcall	stringdir
  3147  0189  0577               	andwf	data_to_row@mask,w
  3148  018A  00A3               	movwf	??_data_to_row+3
  3149  018B  0723               	addwf	??_data_to_row+3,w
  3150  018C  0722               	addwf	??_data_to_row+2,w
  3151  018D  00A4               	movwf	??_data_to_row+4
  3152  018E  0878               	movf	data_to_row@d_row,w
  3153  018F  3E0A               	addlw	10
  3154  0190  0084               	movwf	4
  3155  0191  120A  158A  2000  120A  118A  	fcall	stringdir
  3156  0196  0577               	andwf	data_to_row@mask,w
  3157  0197  0724               	addwf	??_data_to_row+4,w
  3158  0198  00A5               	movwf	??_data_to_row+5
  3159  0199  0878               	movf	data_to_row@d_row,w
  3160  019A  3E09               	addlw	9
  3161  019B  0084               	movwf	4
  3162  019C  120A  158A  2000  120A  118A  	fcall	stringdir
  3163  01A1  0577               	andwf	data_to_row@mask,w
  3164  01A2  00A6               	movwf	??_data_to_row+6
  3165  01A3  1003               	clrc
  3166  01A4  0C26               	rrf	??_data_to_row+6,w
  3167  01A5  0725               	addwf	??_data_to_row+5,w
  3168  01A6  00A7               	movwf	??_data_to_row+7
  3169  01A7  0878               	movf	data_to_row@d_row,w
  3170  01A8  3E08               	addlw	8
  3171  01A9  0084               	movwf	4
  3172  01AA  120A  158A  2000  120A  118A  	fcall	stringdir
  3173  01AF  0577               	andwf	data_to_row@mask,w
  3174  01B0  00A8               	movwf	??_data_to_row+8
  3175  01B1  3002               	movlw	2
  3176  01B2                     u2465:	
  3177  01B2  1003               	clrc
  3178  01B3  0CA8               	rrf	??_data_to_row+8,f
  3179  01B4  3EFF               	addlw	-1
  3180  01B5  1D03               	skipz
  3181  01B6  29B2               	goto	u2465
  3182  01B7  0828               	movf	??_data_to_row+8,w
  3183  01B8  0727               	addwf	??_data_to_row+7,w
  3184  01B9  00A9               	movwf	??_data_to_row+9
  3185  01BA  0878               	movf	data_to_row@d_row,w
  3186  01BB  3E07               	addlw	7
  3187  01BC  0084               	movwf	4
  3188  01BD  120A  158A  2000  120A  118A  	fcall	stringdir
  3189  01C2  0577               	andwf	data_to_row@mask,w
  3190  01C3  00AA               	movwf	??_data_to_row+10
  3191  01C4  3003               	movlw	3
  3192  01C5                     u2475:	
  3193  01C5  1003               	clrc
  3194  01C6  0CAA               	rrf	??_data_to_row+10,f
  3195  01C7  3EFF               	addlw	-1
  3196  01C8  1D03               	skipz
  3197  01C9  29C5               	goto	u2475
  3198  01CA  082A               	movf	??_data_to_row+10,w
  3199  01CB  0729               	addwf	??_data_to_row+9,w
  3200  01CC  00AB               	movwf	??_data_to_row+11
  3201  01CD  082B               	movf	??_data_to_row+11,w
  3202  01CE  00AE               	movwf	_line2
  3203                           
  3204                           ;led_matrix_ds18b20.c: 116: line1 = ((d_row[6] & mask) << 3) + ((d_row[5] & mask) << 2) 
      +                          + ((d_row[4] & mask) << 1) +
  3205                           ;led_matrix_ds18b20.c: 117: (d_row[3] & mask) + ((d_row[2] & mask) >> 1) + ((d_row[1] & 
      +                          mask) >> 2) + ((d_row[0] & mask) >> 3);
  3206  01CF  0878               	movf	data_to_row@d_row,w
  3207  01D0  3E06               	addlw	6
  3208  01D1  0084               	movwf	4
  3209  01D2  120A  158A  2000  120A  118A  	fcall	stringdir
  3210  01D7  0577               	andwf	data_to_row@mask,w
  3211  01D8  00A0               	movwf	??_data_to_row
  3212  01D9  3003               	movlw	3
  3213  01DA                     u2485:	
  3214  01DA  1003               	clrc
  3215  01DB  0DA0               	rlf	??_data_to_row,f
  3216  01DC  3EFF               	addlw	-1
  3217  01DD  1D03               	skipz
  3218  01DE  29DA               	goto	u2485
  3219  01DF  0878               	movf	data_to_row@d_row,w
  3220  01E0  3E05               	addlw	5
  3221  01E1  0084               	movwf	4
  3222  01E2  120A  158A  2000  120A  118A  	fcall	stringdir
  3223  01E7  0577               	andwf	data_to_row@mask,w
  3224  01E8  00A1               	movwf	??_data_to_row+1
  3225  01E9  3001               	movlw	1
  3226  01EA                     u2495:	
  3227  01EA  1003               	clrc
  3228  01EB  0DA1               	rlf	??_data_to_row+1,f
  3229  01EC  3EFF               	addlw	-1
  3230  01ED  1D03               	skipz
  3231  01EE  29EA               	goto	u2495
  3232  01EF  1003               	clrc
  3233  01F0  0D21               	rlf	??_data_to_row+1,w
  3234  01F1  0720               	addwf	??_data_to_row,w
  3235  01F2  00A2               	movwf	??_data_to_row+2
  3236  01F3  0878               	movf	data_to_row@d_row,w
  3237  01F4  3E04               	addlw	4
  3238  01F5  0084               	movwf	4
  3239  01F6  120A  158A  2000  120A  118A  	fcall	stringdir
  3240  01FB  0577               	andwf	data_to_row@mask,w
  3241  01FC  00A3               	movwf	??_data_to_row+3
  3242  01FD  0723               	addwf	??_data_to_row+3,w
  3243  01FE  0722               	addwf	??_data_to_row+2,w
  3244  01FF  00A4               	movwf	??_data_to_row+4
  3245  0200  0878               	movf	data_to_row@d_row,w
  3246  0201  3E03               	addlw	3
  3247  0202  0084               	movwf	4
  3248  0203  120A  158A  2000  120A  118A  	fcall	stringdir
  3249  0208  0577               	andwf	data_to_row@mask,w
  3250  0209  0724               	addwf	??_data_to_row+4,w
  3251  020A  00A5               	movwf	??_data_to_row+5
  3252  020B  0878               	movf	data_to_row@d_row,w
  3253  020C  3E02               	addlw	2
  3254  020D  0084               	movwf	4
  3255  020E  120A  158A  2000  120A  118A  	fcall	stringdir
  3256  0213  0577               	andwf	data_to_row@mask,w
  3257  0214  00A6               	movwf	??_data_to_row+6
  3258  0215  1003               	clrc
  3259  0216  0C26               	rrf	??_data_to_row+6,w
  3260  0217  0725               	addwf	??_data_to_row+5,w
  3261  0218  00A7               	movwf	??_data_to_row+7
  3262  0219  0878               	movf	data_to_row@d_row,w
  3263  021A  3E01               	addlw	1
  3264  021B  0084               	movwf	4
  3265  021C  120A  158A  2000  120A  118A  	fcall	stringdir
  3266  0221  0577               	andwf	data_to_row@mask,w
  3267  0222  00A8               	movwf	??_data_to_row+8
  3268  0223  3002               	movlw	2
  3269  0224                     u2505:	
  3270  0224  1003               	clrc
  3271  0225  0CA8               	rrf	??_data_to_row+8,f
  3272  0226  3EFF               	addlw	-1
  3273  0227  1D03               	skipz
  3274  0228  2A24               	goto	u2505
  3275  0229  0828               	movf	??_data_to_row+8,w
  3276  022A  0727               	addwf	??_data_to_row+7,w
  3277  022B  00A9               	movwf	??_data_to_row+9
  3278  022C  0878               	movf	data_to_row@d_row,w
  3279  022D  0084               	movwf	4
  3280  022E  120A  158A  2000  120A  118A  	fcall	stringdir
  3281  0233  0577               	andwf	data_to_row@mask,w
  3282  0234  00AA               	movwf	??_data_to_row+10
  3283  0235  3003               	movlw	3
  3284  0236                     u2515:	
  3285  0236  1003               	clrc
  3286  0237  0CAA               	rrf	??_data_to_row+10,f
  3287  0238  3EFF               	addlw	-1
  3288  0239  1D03               	skipz
  3289  023A  2A36               	goto	u2515
  3290  023B  082A               	movf	??_data_to_row+10,w
  3291  023C  0729               	addwf	??_data_to_row+9,w
  3292  023D  00AB               	movwf	??_data_to_row+11
  3293  023E  082B               	movf	??_data_to_row+11,w
  3294  023F  00AD               	movwf	_line1
  3295                           
  3296                           ;led_matrix_ds18b20.c: 118: d_column = line3;
  3297  0240  082F               	movf	_line3,w
  3298  0241  00A0               	movwf	??_data_to_row
  3299  0242  01A1               	clrf	??_data_to_row+1
  3300  0243  01A2               	clrf	??_data_to_row+2
  3301  0244  0820               	movf	??_data_to_row,w
  3302  0245  00FB               	movwf	_d_column
  3303  0246  0821               	movf	??_data_to_row+1,w
  3304  0247  00FC               	movwf	_d_column+1
  3305  0248  0822               	movf	??_data_to_row+2,w
  3306  0249  00FD               	movwf	_d_column+2
  3307                           
  3308                           ;led_matrix_ds18b20.c: 119: d_column = (d_column << 8) + line2;
  3309  024A  082E               	movf	_line2,w
  3310  024B  00A0               	movwf	??_data_to_row
  3311  024C  01A1               	clrf	??_data_to_row+1
  3312  024D  01A2               	clrf	??_data_to_row+2
  3313  024E  087B               	movf	_d_column,w
  3314  024F  00A3               	movwf	??_data_to_row+3
  3315  0250  087C               	movf	_d_column+1,w
  3316  0251  00A4               	movwf	??_data_to_row+4
  3317  0252  087D               	movf	_d_column+2,w
  3318  0253  00A5               	movwf	??_data_to_row+5
  3319  0254  3008               	movlw	8
  3320  0255                     u2525:	
  3321  0255  1003               	clrc
  3322  0256  0DA3               	rlf	??_data_to_row+3,f
  3323  0257  0DA4               	rlf	??_data_to_row+4,f
  3324  0258  0DA5               	rlf	??_data_to_row+5,f
  3325  0259  3EFF               	addlw	-1
  3326  025A  1D03               	skipz
  3327  025B  2A55               	goto	u2525
  3328  025C  0823               	movf	??_data_to_row+3,w
  3329  025D  07A0               	addwf	??_data_to_row,f
  3330  025E  0824               	movf	??_data_to_row+4,w
  3331  025F  1803               	skipnc
  3332  0260  0F24               	incfsz	??_data_to_row+4,w
  3333  0261  2A63               	goto	u2531
  3334  0262  2A64               	goto	u2532
  3335  0263                     u2531:	
  3336  0263  07A1               	addwf	??_data_to_row+1,f
  3337  0264                     u2532:	
  3338  0264  0825               	movf	??_data_to_row+5,w
  3339  0265  1803               	skipnc
  3340  0266  0F25               	incfsz	??_data_to_row+5,w
  3341  0267  2A69               	goto	u2533
  3342  0268  2A6A               	goto	u2534
  3343  0269                     u2533:	
  3344  0269  07A2               	addwf	??_data_to_row+2,f
  3345  026A                     u2534:	
  3346  026A  0820               	movf	??_data_to_row,w
  3347  026B  00FB               	movwf	_d_column
  3348  026C  0821               	movf	??_data_to_row+1,w
  3349  026D  00FC               	movwf	_d_column+1
  3350  026E  0822               	movf	??_data_to_row+2,w
  3351  026F  00FD               	movwf	_d_column+2
  3352                           
  3353                           ;led_matrix_ds18b20.c: 120: d_column = (d_column << 8) + line1;
  3354  0270  082D               	movf	_line1,w
  3355  0271  00A0               	movwf	??_data_to_row
  3356  0272  01A1               	clrf	??_data_to_row+1
  3357  0273  01A2               	clrf	??_data_to_row+2
  3358  0274  087B               	movf	_d_column,w
  3359  0275  00A3               	movwf	??_data_to_row+3
  3360  0276  087C               	movf	_d_column+1,w
  3361  0277  00A4               	movwf	??_data_to_row+4
  3362  0278  087D               	movf	_d_column+2,w
  3363  0279  00A5               	movwf	??_data_to_row+5
  3364  027A  3008               	movlw	8
  3365  027B                     u2545:	
  3366  027B  1003               	clrc
  3367  027C  0DA3               	rlf	??_data_to_row+3,f
  3368  027D  0DA4               	rlf	??_data_to_row+4,f
  3369  027E  0DA5               	rlf	??_data_to_row+5,f
  3370  027F  3EFF               	addlw	-1
  3371  0280  1D03               	skipz
  3372  0281  2A7B               	goto	u2545
  3373  0282  0823               	movf	??_data_to_row+3,w
  3374  0283  07A0               	addwf	??_data_to_row,f
  3375  0284  0824               	movf	??_data_to_row+4,w
  3376  0285  1803               	skipnc
  3377  0286  0F24               	incfsz	??_data_to_row+4,w
  3378  0287  2A89               	goto	u2551
  3379  0288  2A8A               	goto	u2552
  3380  0289                     u2551:	
  3381  0289  07A1               	addwf	??_data_to_row+1,f
  3382  028A                     u2552:	
  3383  028A  0825               	movf	??_data_to_row+5,w
  3384  028B  1803               	skipnc
  3385  028C  0F25               	incfsz	??_data_to_row+5,w
  3386  028D  2A8F               	goto	u2553
  3387  028E  2A90               	goto	u2554
  3388  028F                     u2553:	
  3389  028F  07A2               	addwf	??_data_to_row+2,f
  3390  0290                     u2554:	
  3391  0290  0820               	movf	??_data_to_row,w
  3392  0291  00FB               	movwf	_d_column
  3393  0292  0821               	movf	??_data_to_row+1,w
  3394  0293  00FC               	movwf	_d_column+1
  3395  0294  0822               	movf	??_data_to_row+2,w
  3396  0295  00FD               	movwf	_d_column+2
  3397                           
  3398                           ;led_matrix_ds18b20.c: 121: data_to_column(d_column);
  3399  0296  087B               	movf	_d_column,w
  3400  0297  00F0               	movwf	data_to_column@d_col
  3401  0298  087C               	movf	_d_column+1,w
  3402  0299  00F1               	movwf	data_to_column@d_col+1
  3403  029A  087D               	movf	_d_column+2,w
  3404  029B  00F2               	movwf	data_to_column@d_col+2
  3405  029C  160A  118A  27A5  120A  118A  	fcall	_data_to_column
  3406                           
  3407                           ;led_matrix_ds18b20.c: 123: mask = 0x04;
  3408  02A1  3004               	movlw	4
  3409  02A2  1283               	bcf	3,5	;RP0=0, select bank0
  3410  02A3  1303               	bcf	3,6	;RP1=0, select bank0
  3411  02A4  00A0               	movwf	??_data_to_row
  3412  02A5  0820               	movf	??_data_to_row,w
  3413  02A6  00F7               	movwf	data_to_row@mask
  3414                           
  3415                           ;led_matrix_ds18b20.c: 124: line3 = ((d_row[20] & mask) << 4) + ((d_row[19] & mask) << 3
      +                          ) + ((d_row[18] & mask) << 2) +
  3416                           ;led_matrix_ds18b20.c: 125: ((d_row[17] & mask) << 1) + (d_row[16] & mask) + ((d_row[15]
      +                           & mask) >> 1) + ((d_row[14] & mask) >> 2);
  3417  02A7  0878               	movf	data_to_row@d_row,w
  3418  02A8  3E14               	addlw	20
  3419  02A9  0084               	movwf	4
  3420  02AA  120A  158A  2000  120A  118A  	fcall	stringdir
  3421  02AF  0577               	andwf	data_to_row@mask,w
  3422  02B0  00A0               	movwf	??_data_to_row
  3423  02B1  3004               	movlw	4
  3424  02B2                     u2565:	
  3425  02B2  1003               	clrc
  3426  02B3  0DA0               	rlf	??_data_to_row,f
  3427  02B4  3EFF               	addlw	-1
  3428  02B5  1D03               	skipz
  3429  02B6  2AB2               	goto	u2565
  3430  02B7  0878               	movf	data_to_row@d_row,w
  3431  02B8  3E13               	addlw	19
  3432  02B9  0084               	movwf	4
  3433  02BA  120A  158A  2000  120A  118A  	fcall	stringdir
  3434  02BF  0577               	andwf	data_to_row@mask,w
  3435  02C0  00A1               	movwf	??_data_to_row+1
  3436  02C1  3002               	movlw	2
  3437  02C2                     u2575:	
  3438  02C2  1003               	clrc
  3439  02C3  0DA1               	rlf	??_data_to_row+1,f
  3440  02C4  3EFF               	addlw	-1
  3441  02C5  1D03               	skipz
  3442  02C6  2AC2               	goto	u2575
  3443  02C7  1003               	clrc
  3444  02C8  0D21               	rlf	??_data_to_row+1,w
  3445  02C9  0720               	addwf	??_data_to_row,w
  3446  02CA  00A2               	movwf	??_data_to_row+2
  3447  02CB  0878               	movf	data_to_row@d_row,w
  3448  02CC  3E12               	addlw	18
  3449  02CD  0084               	movwf	4
  3450  02CE  120A  158A  2000  120A  118A  	fcall	stringdir
  3451  02D3  0577               	andwf	data_to_row@mask,w
  3452  02D4  00A3               	movwf	??_data_to_row+3
  3453  02D5  3001               	movlw	1
  3454  02D6                     u2585:	
  3455  02D6  1003               	clrc
  3456  02D7  0DA3               	rlf	??_data_to_row+3,f
  3457  02D8  3EFF               	addlw	-1
  3458  02D9  1D03               	skipz
  3459  02DA  2AD6               	goto	u2585
  3460  02DB  1003               	clrc
  3461  02DC  0D23               	rlf	??_data_to_row+3,w
  3462  02DD  0722               	addwf	??_data_to_row+2,w
  3463  02DE  00A4               	movwf	??_data_to_row+4
  3464  02DF  0878               	movf	data_to_row@d_row,w
  3465  02E0  3E11               	addlw	17
  3466  02E1  0084               	movwf	4
  3467  02E2  120A  158A  2000  120A  118A  	fcall	stringdir
  3468  02E7  0577               	andwf	data_to_row@mask,w
  3469  02E8  00A5               	movwf	??_data_to_row+5
  3470  02E9  0725               	addwf	??_data_to_row+5,w
  3471  02EA  0724               	addwf	??_data_to_row+4,w
  3472  02EB  00A6               	movwf	??_data_to_row+6
  3473  02EC  0878               	movf	data_to_row@d_row,w
  3474  02ED  3E10               	addlw	16
  3475  02EE  0084               	movwf	4
  3476  02EF  120A  158A  2000  120A  118A  	fcall	stringdir
  3477  02F4  0577               	andwf	data_to_row@mask,w
  3478  02F5  0726               	addwf	??_data_to_row+6,w
  3479  02F6  00A7               	movwf	??_data_to_row+7
  3480  02F7  0878               	movf	data_to_row@d_row,w
  3481  02F8  3E0F               	addlw	15
  3482  02F9  0084               	movwf	4
  3483  02FA  120A  158A  2000  120A  118A  	fcall	stringdir
  3484  02FF  0577               	andwf	data_to_row@mask,w
  3485  0300  00A8               	movwf	??_data_to_row+8
  3486  0301  1003               	clrc
  3487  0302  0C28               	rrf	??_data_to_row+8,w
  3488  0303  0727               	addwf	??_data_to_row+7,w
  3489  0304  00A9               	movwf	??_data_to_row+9
  3490  0305  0878               	movf	data_to_row@d_row,w
  3491  0306  3E0E               	addlw	14
  3492  0307  0084               	movwf	4
  3493  0308  120A  158A  2000  120A  118A  	fcall	stringdir
  3494  030D  0577               	andwf	data_to_row@mask,w
  3495  030E  00AA               	movwf	??_data_to_row+10
  3496  030F  3002               	movlw	2
  3497  0310                     u2595:	
  3498  0310  1003               	clrc
  3499  0311  0CAA               	rrf	??_data_to_row+10,f
  3500  0312  3EFF               	addlw	-1
  3501  0313  1D03               	skipz
  3502  0314  2B10               	goto	u2595
  3503  0315  082A               	movf	??_data_to_row+10,w
  3504  0316  0729               	addwf	??_data_to_row+9,w
  3505  0317  00AB               	movwf	??_data_to_row+11
  3506  0318  082B               	movf	??_data_to_row+11,w
  3507  0319  00AF               	movwf	_line3
  3508                           
  3509                           ;led_matrix_ds18b20.c: 126: line2 = ((d_row[13] & mask) << 4) + ((d_row[12] & mask) << 3
      +                          ) + ((d_row[11] & mask) << 2) +
  3510                           ;led_matrix_ds18b20.c: 127: ((d_row[10] & mask) << 1) + (d_row[9] & mask) + ((d_row[8] &
      +                           mask) >> 1) + ((d_row[7] & mask) >> 2);
  3511  031A  0878               	movf	data_to_row@d_row,w
  3512  031B  3E0D               	addlw	13
  3513  031C  0084               	movwf	4
  3514  031D  120A  158A  2000  120A  118A  	fcall	stringdir
  3515  0322  0577               	andwf	data_to_row@mask,w
  3516  0323  00A0               	movwf	??_data_to_row
  3517  0324  3004               	movlw	4
  3518  0325                     u2605:	
  3519  0325  1003               	clrc
  3520  0326  0DA0               	rlf	??_data_to_row,f
  3521  0327  3EFF               	addlw	-1
  3522  0328  1D03               	skipz
  3523  0329  2B25               	goto	u2605
  3524  032A  0878               	movf	data_to_row@d_row,w
  3525  032B  3E0C               	addlw	12
  3526  032C  0084               	movwf	4
  3527  032D  120A  158A  2000  120A  118A  	fcall	stringdir
  3528  0332  0577               	andwf	data_to_row@mask,w
  3529  0333  00A1               	movwf	??_data_to_row+1
  3530  0334  3002               	movlw	2
  3531  0335                     u2615:	
  3532  0335  1003               	clrc
  3533  0336  0DA1               	rlf	??_data_to_row+1,f
  3534  0337  3EFF               	addlw	-1
  3535  0338  1D03               	skipz
  3536  0339  2B35               	goto	u2615
  3537  033A  1003               	clrc
  3538  033B  0D21               	rlf	??_data_to_row+1,w
  3539  033C  0720               	addwf	??_data_to_row,w
  3540  033D  00A2               	movwf	??_data_to_row+2
  3541  033E  0878               	movf	data_to_row@d_row,w
  3542  033F  3E0B               	addlw	11
  3543  0340  0084               	movwf	4
  3544  0341  120A  158A  2000  120A  118A  	fcall	stringdir
  3545  0346  0577               	andwf	data_to_row@mask,w
  3546  0347  00A3               	movwf	??_data_to_row+3
  3547  0348  3001               	movlw	1
  3548  0349                     u2625:	
  3549  0349  1003               	clrc
  3550  034A  0DA3               	rlf	??_data_to_row+3,f
  3551  034B  3EFF               	addlw	-1
  3552  034C  1D03               	skipz
  3553  034D  2B49               	goto	u2625
  3554  034E  1003               	clrc
  3555  034F  0D23               	rlf	??_data_to_row+3,w
  3556  0350  0722               	addwf	??_data_to_row+2,w
  3557  0351  00A4               	movwf	??_data_to_row+4
  3558  0352  0878               	movf	data_to_row@d_row,w
  3559  0353  3E0A               	addlw	10
  3560  0354  0084               	movwf	4
  3561  0355  120A  158A  2000  120A  118A  	fcall	stringdir
  3562  035A  0577               	andwf	data_to_row@mask,w
  3563  035B  00A5               	movwf	??_data_to_row+5
  3564  035C  0725               	addwf	??_data_to_row+5,w
  3565  035D  0724               	addwf	??_data_to_row+4,w
  3566  035E  00A6               	movwf	??_data_to_row+6
  3567  035F  0878               	movf	data_to_row@d_row,w
  3568  0360  3E09               	addlw	9
  3569  0361  0084               	movwf	4
  3570  0362  120A  158A  2000  120A  118A  	fcall	stringdir
  3571  0367  0577               	andwf	data_to_row@mask,w
  3572  0368  0726               	addwf	??_data_to_row+6,w
  3573  0369  00A7               	movwf	??_data_to_row+7
  3574  036A  0878               	movf	data_to_row@d_row,w
  3575  036B  3E08               	addlw	8
  3576  036C  0084               	movwf	4
  3577  036D  120A  158A  2000  120A  118A  	fcall	stringdir
  3578  0372  0577               	andwf	data_to_row@mask,w
  3579  0373  00A8               	movwf	??_data_to_row+8
  3580  0374  1003               	clrc
  3581  0375  0C28               	rrf	??_data_to_row+8,w
  3582  0376  0727               	addwf	??_data_to_row+7,w
  3583  0377  00A9               	movwf	??_data_to_row+9
  3584  0378  0878               	movf	data_to_row@d_row,w
  3585  0379  3E07               	addlw	7
  3586  037A  0084               	movwf	4
  3587  037B  120A  158A  2000  120A  118A  	fcall	stringdir
  3588  0380  0577               	andwf	data_to_row@mask,w
  3589  0381  00AA               	movwf	??_data_to_row+10
  3590  0382  3002               	movlw	2
  3591  0383                     u2635:	
  3592  0383  1003               	clrc
  3593  0384  0CAA               	rrf	??_data_to_row+10,f
  3594  0385  3EFF               	addlw	-1
  3595  0386  1D03               	skipz
  3596  0387  2B83               	goto	u2635
  3597  0388  082A               	movf	??_data_to_row+10,w
  3598  0389  0729               	addwf	??_data_to_row+9,w
  3599  038A  00AB               	movwf	??_data_to_row+11
  3600  038B  082B               	movf	??_data_to_row+11,w
  3601  038C  00AE               	movwf	_line2
  3602                           
  3603                           ;led_matrix_ds18b20.c: 128: line1 = ((d_row[6] & mask) << 4) + ((d_row[5] & mask) << 3) 
      +                          + ((d_row[4] & mask) << 2) +
  3604                           ;led_matrix_ds18b20.c: 129: ((d_row[3] & mask) << 1) + (d_row[2] & mask) + ((d_row[1] & 
      +                          mask) >> 1) + ((d_row[0] & mask) >> 2);
  3605  038D  0878               	movf	data_to_row@d_row,w
  3606  038E  3E06               	addlw	6
  3607  038F  0084               	movwf	4
  3608  0390  120A  158A  2000  120A  118A  	fcall	stringdir
  3609  0395  0577               	andwf	data_to_row@mask,w
  3610  0396  00A0               	movwf	??_data_to_row
  3611  0397  3004               	movlw	4
  3612  0398                     u2645:	
  3613  0398  1003               	clrc
  3614  0399  0DA0               	rlf	??_data_to_row,f
  3615  039A  3EFF               	addlw	-1
  3616  039B  1D03               	skipz
  3617  039C  2B98               	goto	u2645
  3618  039D  0878               	movf	data_to_row@d_row,w
  3619  039E  3E05               	addlw	5
  3620  039F  0084               	movwf	4
  3621  03A0  120A  158A  2000  120A  118A  	fcall	stringdir
  3622  03A5  0577               	andwf	data_to_row@mask,w
  3623  03A6  00A1               	movwf	??_data_to_row+1
  3624  03A7  3002               	movlw	2
  3625  03A8                     u2655:	
  3626  03A8  1003               	clrc
  3627  03A9  0DA1               	rlf	??_data_to_row+1,f
  3628  03AA  3EFF               	addlw	-1
  3629  03AB  1D03               	skipz
  3630  03AC  2BA8               	goto	u2655
  3631  03AD  1003               	clrc
  3632  03AE  0D21               	rlf	??_data_to_row+1,w
  3633  03AF  0720               	addwf	??_data_to_row,w
  3634  03B0  00A2               	movwf	??_data_to_row+2
  3635  03B1  0878               	movf	data_to_row@d_row,w
  3636  03B2  3E04               	addlw	4
  3637  03B3  0084               	movwf	4
  3638  03B4  120A  158A  2000  120A  118A  	fcall	stringdir
  3639  03B9  0577               	andwf	data_to_row@mask,w
  3640  03BA  00A3               	movwf	??_data_to_row+3
  3641  03BB  3001               	movlw	1
  3642  03BC                     u2665:	
  3643  03BC  1003               	clrc
  3644  03BD  0DA3               	rlf	??_data_to_row+3,f
  3645  03BE  3EFF               	addlw	-1
  3646  03BF  1D03               	skipz
  3647  03C0  2BBC               	goto	u2665
  3648  03C1  1003               	clrc
  3649  03C2  0D23               	rlf	??_data_to_row+3,w
  3650  03C3  0722               	addwf	??_data_to_row+2,w
  3651  03C4  00A4               	movwf	??_data_to_row+4
  3652  03C5  0878               	movf	data_to_row@d_row,w
  3653  03C6  3E03               	addlw	3
  3654  03C7  0084               	movwf	4
  3655  03C8  120A  158A  2000  120A  118A  	fcall	stringdir
  3656  03CD  0577               	andwf	data_to_row@mask,w
  3657  03CE  00A5               	movwf	??_data_to_row+5
  3658  03CF  0725               	addwf	??_data_to_row+5,w
  3659  03D0  0724               	addwf	??_data_to_row+4,w
  3660  03D1  00A6               	movwf	??_data_to_row+6
  3661  03D2  0878               	movf	data_to_row@d_row,w
  3662  03D3  3E02               	addlw	2
  3663  03D4  0084               	movwf	4
  3664  03D5  120A  158A  2000  120A  118A  	fcall	stringdir
  3665  03DA  0577               	andwf	data_to_row@mask,w
  3666  03DB  0726               	addwf	??_data_to_row+6,w
  3667  03DC  00A7               	movwf	??_data_to_row+7
  3668  03DD  0878               	movf	data_to_row@d_row,w
  3669  03DE  3E01               	addlw	1
  3670  03DF  0084               	movwf	4
  3671  03E0  120A  158A  2000  120A  118A  	fcall	stringdir
  3672  03E5  0577               	andwf	data_to_row@mask,w
  3673  03E6  00A8               	movwf	??_data_to_row+8
  3674  03E7  1003               	clrc
  3675  03E8  0C28               	rrf	??_data_to_row+8,w
  3676  03E9  0727               	addwf	??_data_to_row+7,w
  3677  03EA  00A9               	movwf	??_data_to_row+9
  3678  03EB  0878               	movf	data_to_row@d_row,w
  3679  03EC  0084               	movwf	4
  3680  03ED  120A  158A  2000  120A  118A  	fcall	stringdir
  3681  03F2  0577               	andwf	data_to_row@mask,w
  3682  03F3  00AA               	movwf	??_data_to_row+10
  3683  03F4  3002               	movlw	2
  3684  03F5                     u2675:	
  3685  03F5  1003               	clrc
  3686  03F6  0CAA               	rrf	??_data_to_row+10,f
  3687  03F7  3EFF               	addlw	-1
  3688  03F8  1D03               	skipz
  3689  03F9  2BF5               	goto	u2675
  3690  03FA  082A               	movf	??_data_to_row+10,w
  3691  03FB  0729               	addwf	??_data_to_row+9,w
  3692  03FC  00AB               	movwf	??_data_to_row+11
  3693  03FD  082B               	movf	??_data_to_row+11,w
  3694  03FE  00AD               	movwf	_line1
  3695                           
  3696                           ;led_matrix_ds18b20.c: 130: d_column = line3;
  3697  03FF  082F               	movf	_line3,w
  3698  0400  00A0               	movwf	??_data_to_row
  3699  0401  01A1               	clrf	??_data_to_row+1
  3700  0402  01A2               	clrf	??_data_to_row+2
  3701  0403  0820               	movf	??_data_to_row,w
  3702  0404  00FB               	movwf	_d_column
  3703  0405  0821               	movf	??_data_to_row+1,w
  3704  0406  00FC               	movwf	_d_column+1
  3705  0407  0822               	movf	??_data_to_row+2,w
  3706  0408  00FD               	movwf	_d_column+2
  3707                           
  3708                           ;led_matrix_ds18b20.c: 131: d_column = (d_column << 8) + line2;
  3709  0409  082E               	movf	_line2,w
  3710  040A  00A0               	movwf	??_data_to_row
  3711  040B  01A1               	clrf	??_data_to_row+1
  3712  040C  01A2               	clrf	??_data_to_row+2
  3713  040D  087B               	movf	_d_column,w
  3714  040E  00A3               	movwf	??_data_to_row+3
  3715  040F  087C               	movf	_d_column+1,w
  3716  0410  00A4               	movwf	??_data_to_row+4
  3717  0411  087D               	movf	_d_column+2,w
  3718  0412  00A5               	movwf	??_data_to_row+5
  3719  0413  3008               	movlw	8
  3720  0414                     u2685:	
  3721  0414  1003               	clrc
  3722  0415  0DA3               	rlf	??_data_to_row+3,f
  3723  0416  0DA4               	rlf	??_data_to_row+4,f
  3724  0417  0DA5               	rlf	??_data_to_row+5,f
  3725  0418  3EFF               	addlw	-1
  3726  0419  1D03               	skipz
  3727  041A  2C14               	goto	u2685
  3728  041B  0823               	movf	??_data_to_row+3,w
  3729  041C  07A0               	addwf	??_data_to_row,f
  3730  041D  0824               	movf	??_data_to_row+4,w
  3731  041E  1803               	skipnc
  3732  041F  0F24               	incfsz	??_data_to_row+4,w
  3733  0420  2C22               	goto	u2691
  3734  0421  2C23               	goto	u2692
  3735  0422                     u2691:	
  3736  0422  07A1               	addwf	??_data_to_row+1,f
  3737  0423                     u2692:	
  3738  0423  0825               	movf	??_data_to_row+5,w
  3739  0424  1803               	skipnc
  3740  0425  0F25               	incfsz	??_data_to_row+5,w
  3741  0426  2C28               	goto	u2693
  3742  0427  2C29               	goto	u2694
  3743  0428                     u2693:	
  3744  0428  07A2               	addwf	??_data_to_row+2,f
  3745  0429                     u2694:	
  3746  0429  0820               	movf	??_data_to_row,w
  3747  042A  00FB               	movwf	_d_column
  3748  042B  0821               	movf	??_data_to_row+1,w
  3749  042C  00FC               	movwf	_d_column+1
  3750  042D  0822               	movf	??_data_to_row+2,w
  3751  042E  00FD               	movwf	_d_column+2
  3752                           
  3753                           ;led_matrix_ds18b20.c: 132: d_column = (d_column << 8) + line1;
  3754  042F  082D               	movf	_line1,w
  3755  0430  00A0               	movwf	??_data_to_row
  3756  0431  01A1               	clrf	??_data_to_row+1
  3757  0432  01A2               	clrf	??_data_to_row+2
  3758  0433  087B               	movf	_d_column,w
  3759  0434  00A3               	movwf	??_data_to_row+3
  3760  0435  087C               	movf	_d_column+1,w
  3761  0436  00A4               	movwf	??_data_to_row+4
  3762  0437  087D               	movf	_d_column+2,w
  3763  0438  00A5               	movwf	??_data_to_row+5
  3764  0439  3008               	movlw	8
  3765  043A                     u2705:	
  3766  043A  1003               	clrc
  3767  043B  0DA3               	rlf	??_data_to_row+3,f
  3768  043C  0DA4               	rlf	??_data_to_row+4,f
  3769  043D  0DA5               	rlf	??_data_to_row+5,f
  3770  043E  3EFF               	addlw	-1
  3771  043F  1D03               	skipz
  3772  0440  2C3A               	goto	u2705
  3773  0441  0823               	movf	??_data_to_row+3,w
  3774  0442  07A0               	addwf	??_data_to_row,f
  3775  0443  0824               	movf	??_data_to_row+4,w
  3776  0444  1803               	skipnc
  3777  0445  0F24               	incfsz	??_data_to_row+4,w
  3778  0446  2C48               	goto	u2711
  3779  0447  2C49               	goto	u2712
  3780  0448                     u2711:	
  3781  0448  07A1               	addwf	??_data_to_row+1,f
  3782  0449                     u2712:	
  3783  0449  0825               	movf	??_data_to_row+5,w
  3784  044A  1803               	skipnc
  3785  044B  0F25               	incfsz	??_data_to_row+5,w
  3786  044C  2C4E               	goto	u2713
  3787  044D  2C4F               	goto	u2714
  3788  044E                     u2713:	
  3789  044E  07A2               	addwf	??_data_to_row+2,f
  3790  044F                     u2714:	
  3791  044F  0820               	movf	??_data_to_row,w
  3792  0450  00FB               	movwf	_d_column
  3793  0451  0821               	movf	??_data_to_row+1,w
  3794  0452  00FC               	movwf	_d_column+1
  3795  0453  0822               	movf	??_data_to_row+2,w
  3796  0454  00FD               	movwf	_d_column+2
  3797                           
  3798                           ;led_matrix_ds18b20.c: 133: data_to_column(d_column);
  3799  0455  087B               	movf	_d_column,w
  3800  0456  00F0               	movwf	data_to_column@d_col
  3801  0457  087C               	movf	_d_column+1,w
  3802  0458  00F1               	movwf	data_to_column@d_col+1
  3803  0459  087D               	movf	_d_column+2,w
  3804  045A  00F2               	movwf	data_to_column@d_col+2
  3805  045B  160A  118A  27A5  120A  118A  	fcall	_data_to_column
  3806                           
  3807                           ;led_matrix_ds18b20.c: 135: mask = 0x02;
  3808  0460  3002               	movlw	2
  3809  0461  1283               	bcf	3,5	;RP0=0, select bank0
  3810  0462  1303               	bcf	3,6	;RP1=0, select bank0
  3811  0463  00A0               	movwf	??_data_to_row
  3812  0464  0820               	movf	??_data_to_row,w
  3813  0465  00F7               	movwf	data_to_row@mask
  3814                           
  3815                           ;led_matrix_ds18b20.c: 136: line3 = ((d_row[20] & mask) << 5) + ((d_row[19] & mask) << 4
      +                          ) + ((d_row[18] & mask) << 3) +
  3816                           ;led_matrix_ds18b20.c: 137: ((d_row[17] & mask) << 2) + ((d_row[16] & mask) << 1) + (d_r
      +                          ow[15] & mask) + ((d_row[14] & mask) >> 1);
  3817  0466  0878               	movf	data_to_row@d_row,w
  3818  0467  3E14               	addlw	20
  3819  0468  0084               	movwf	4
  3820  0469  120A  158A  2000  120A  118A  	fcall	stringdir
  3821  046E  0577               	andwf	data_to_row@mask,w
  3822  046F  00A0               	movwf	??_data_to_row
  3823  0470  3005               	movlw	5
  3824  0471                     u2725:	
  3825  0471  1003               	clrc
  3826  0472  0DA0               	rlf	??_data_to_row,f
  3827  0473  3EFF               	addlw	-1
  3828  0474  1D03               	skipz
  3829  0475  2C71               	goto	u2725
  3830  0476  0878               	movf	data_to_row@d_row,w
  3831  0477  3E13               	addlw	19
  3832  0478  0084               	movwf	4
  3833  0479  120A  158A  2000  120A  118A  	fcall	stringdir
  3834  047E  0577               	andwf	data_to_row@mask,w
  3835  047F  00A1               	movwf	??_data_to_row+1
  3836  0480  3003               	movlw	3
  3837  0481                     u2735:	
  3838  0481  1003               	clrc
  3839  0482  0DA1               	rlf	??_data_to_row+1,f
  3840  0483  3EFF               	addlw	-1
  3841  0484  1D03               	skipz
  3842  0485  2C81               	goto	u2735
  3843  0486  1003               	clrc
  3844  0487  0D21               	rlf	??_data_to_row+1,w
  3845  0488  0720               	addwf	??_data_to_row,w
  3846  0489  00A2               	movwf	??_data_to_row+2
  3847  048A  0878               	movf	data_to_row@d_row,w
  3848  048B  3E12               	addlw	18
  3849  048C  0084               	movwf	4
  3850  048D  120A  158A  2000  120A  118A  	fcall	stringdir
  3851  0492  0577               	andwf	data_to_row@mask,w
  3852  0493  00A3               	movwf	??_data_to_row+3
  3853  0494  3002               	movlw	2
  3854  0495                     u2745:	
  3855  0495  1003               	clrc
  3856  0496  0DA3               	rlf	??_data_to_row+3,f
  3857  0497  3EFF               	addlw	-1
  3858  0498  1D03               	skipz
  3859  0499  2C95               	goto	u2745
  3860  049A  1003               	clrc
  3861  049B  0D23               	rlf	??_data_to_row+3,w
  3862  049C  0722               	addwf	??_data_to_row+2,w
  3863  049D  00A4               	movwf	??_data_to_row+4
  3864  049E  0878               	movf	data_to_row@d_row,w
  3865  049F  3E11               	addlw	17
  3866  04A0  0084               	movwf	4
  3867  04A1  120A  158A  2000  120A  118A  	fcall	stringdir
  3868  04A6  0577               	andwf	data_to_row@mask,w
  3869  04A7  00A5               	movwf	??_data_to_row+5
  3870  04A8  3001               	movlw	1
  3871  04A9                     u2755:	
  3872  04A9  1003               	clrc
  3873  04AA  0DA5               	rlf	??_data_to_row+5,f
  3874  04AB  3EFF               	addlw	-1
  3875  04AC  1D03               	skipz
  3876  04AD  2CA9               	goto	u2755
  3877  04AE  1003               	clrc
  3878  04AF  0D25               	rlf	??_data_to_row+5,w
  3879  04B0  0724               	addwf	??_data_to_row+4,w
  3880  04B1  00A6               	movwf	??_data_to_row+6
  3881  04B2  0878               	movf	data_to_row@d_row,w
  3882  04B3  3E10               	addlw	16
  3883  04B4  0084               	movwf	4
  3884  04B5  120A  158A  2000  120A  118A  	fcall	stringdir
  3885  04BA  0577               	andwf	data_to_row@mask,w
  3886  04BB  00A7               	movwf	??_data_to_row+7
  3887  04BC  0727               	addwf	??_data_to_row+7,w
  3888  04BD  0726               	addwf	??_data_to_row+6,w
  3889  04BE  00A8               	movwf	??_data_to_row+8
  3890  04BF  0878               	movf	data_to_row@d_row,w
  3891  04C0  3E0F               	addlw	15
  3892  04C1  0084               	movwf	4
  3893  04C2  120A  158A  2000  120A  118A  	fcall	stringdir
  3894  04C7  0577               	andwf	data_to_row@mask,w
  3895  04C8  0728               	addwf	??_data_to_row+8,w
  3896  04C9  00A9               	movwf	??_data_to_row+9
  3897  04CA  0878               	movf	data_to_row@d_row,w
  3898  04CB  3E0E               	addlw	14
  3899  04CC  0084               	movwf	4
  3900  04CD  120A  158A  2000  120A  118A  	fcall	stringdir
  3901  04D2  0577               	andwf	data_to_row@mask,w
  3902  04D3  00AA               	movwf	??_data_to_row+10
  3903  04D4  1003               	clrc
  3904  04D5  0C2A               	rrf	??_data_to_row+10,w
  3905  04D6  0729               	addwf	??_data_to_row+9,w
  3906  04D7  00AB               	movwf	??_data_to_row+11
  3907  04D8  082B               	movf	??_data_to_row+11,w
  3908  04D9  00AF               	movwf	_line3
  3909                           
  3910                           ;led_matrix_ds18b20.c: 138: line2 = ((d_row[13] & mask) << 5) + ((d_row[12] & mask) << 4
      +                          ) + ((d_row[11] & mask) << 3) +
  3911                           ;led_matrix_ds18b20.c: 139: ((d_row[10] & mask) << 2) + ((d_row[9] & mask) << 1) + (d_ro
      +                          w[8] & mask) + ((d_row[7] & mask) >> 1);
  3912  04DA  0878               	movf	data_to_row@d_row,w
  3913  04DB  3E0D               	addlw	13
  3914  04DC  0084               	movwf	4
  3915  04DD  120A  158A  2000  120A  118A  	fcall	stringdir
  3916  04E2  0577               	andwf	data_to_row@mask,w
  3917  04E3  00A0               	movwf	??_data_to_row
  3918  04E4  3005               	movlw	5
  3919  04E5                     u2765:	
  3920  04E5  1003               	clrc
  3921  04E6  0DA0               	rlf	??_data_to_row,f
  3922  04E7  3EFF               	addlw	-1
  3923  04E8  1D03               	skipz
  3924  04E9  2CE5               	goto	u2765
  3925  04EA  0878               	movf	data_to_row@d_row,w
  3926  04EB  3E0C               	addlw	12
  3927  04EC  0084               	movwf	4
  3928  04ED  120A  158A  2000  120A  118A  	fcall	stringdir
  3929  04F2  0577               	andwf	data_to_row@mask,w
  3930  04F3  00A1               	movwf	??_data_to_row+1
  3931  04F4  3003               	movlw	3
  3932  04F5                     u2775:	
  3933  04F5  1003               	clrc
  3934  04F6  0DA1               	rlf	??_data_to_row+1,f
  3935  04F7  3EFF               	addlw	-1
  3936  04F8  1D03               	skipz
  3937  04F9  2CF5               	goto	u2775
  3938  04FA  1003               	clrc
  3939  04FB  0D21               	rlf	??_data_to_row+1,w
  3940  04FC  0720               	addwf	??_data_to_row,w
  3941  04FD  00A2               	movwf	??_data_to_row+2
  3942  04FE  0878               	movf	data_to_row@d_row,w
  3943  04FF  3E0B               	addlw	11
  3944  0500  0084               	movwf	4
  3945  0501  120A  158A  2000  120A  118A  	fcall	stringdir
  3946  0506  0577               	andwf	data_to_row@mask,w
  3947  0507  00A3               	movwf	??_data_to_row+3
  3948  0508  3002               	movlw	2
  3949  0509                     u2785:	
  3950  0509  1003               	clrc
  3951  050A  0DA3               	rlf	??_data_to_row+3,f
  3952  050B  3EFF               	addlw	-1
  3953  050C  1D03               	skipz
  3954  050D  2D09               	goto	u2785
  3955  050E  1003               	clrc
  3956  050F  0D23               	rlf	??_data_to_row+3,w
  3957  0510  0722               	addwf	??_data_to_row+2,w
  3958  0511  00A4               	movwf	??_data_to_row+4
  3959  0512  0878               	movf	data_to_row@d_row,w
  3960  0513  3E0A               	addlw	10
  3961  0514  0084               	movwf	4
  3962  0515  120A  158A  2000  120A  118A  	fcall	stringdir
  3963  051A  0577               	andwf	data_to_row@mask,w
  3964  051B  00A5               	movwf	??_data_to_row+5
  3965  051C  3001               	movlw	1
  3966  051D                     u2795:	
  3967  051D  1003               	clrc
  3968  051E  0DA5               	rlf	??_data_to_row+5,f
  3969  051F  3EFF               	addlw	-1
  3970  0520  1D03               	skipz
  3971  0521  2D1D               	goto	u2795
  3972  0522  1003               	clrc
  3973  0523  0D25               	rlf	??_data_to_row+5,w
  3974  0524  0724               	addwf	??_data_to_row+4,w
  3975  0525  00A6               	movwf	??_data_to_row+6
  3976  0526  0878               	movf	data_to_row@d_row,w
  3977  0527  3E09               	addlw	9
  3978  0528  0084               	movwf	4
  3979  0529  120A  158A  2000  120A  118A  	fcall	stringdir
  3980  052E  0577               	andwf	data_to_row@mask,w
  3981  052F  00A7               	movwf	??_data_to_row+7
  3982  0530  0727               	addwf	??_data_to_row+7,w
  3983  0531  0726               	addwf	??_data_to_row+6,w
  3984  0532  00A8               	movwf	??_data_to_row+8
  3985  0533  0878               	movf	data_to_row@d_row,w
  3986  0534  3E08               	addlw	8
  3987  0535  0084               	movwf	4
  3988  0536  120A  158A  2000  120A  118A  	fcall	stringdir
  3989  053B  0577               	andwf	data_to_row@mask,w
  3990  053C  0728               	addwf	??_data_to_row+8,w
  3991  053D  00A9               	movwf	??_data_to_row+9
  3992  053E  0878               	movf	data_to_row@d_row,w
  3993  053F  3E07               	addlw	7
  3994  0540  0084               	movwf	4
  3995  0541  120A  158A  2000  120A  118A  	fcall	stringdir
  3996  0546  0577               	andwf	data_to_row@mask,w
  3997  0547  00AA               	movwf	??_data_to_row+10
  3998  0548  1003               	clrc
  3999  0549  0C2A               	rrf	??_data_to_row+10,w
  4000  054A  0729               	addwf	??_data_to_row+9,w
  4001  054B  00AB               	movwf	??_data_to_row+11
  4002  054C  082B               	movf	??_data_to_row+11,w
  4003  054D  00AE               	movwf	_line2
  4004                           
  4005                           ;led_matrix_ds18b20.c: 140: line1 = ((d_row[6] & mask) << 5) + ((d_row[5] & mask) << 4) 
      +                          + ((d_row[4] & mask) << 3) +
  4006                           ;led_matrix_ds18b20.c: 141: ((d_row[3] & mask) << 2) + ((d_row[2] & mask) << 1) + (d_row
      +                          [1] & mask) + ((d_row[0] & mask) >> 1);
  4007  054E  0878               	movf	data_to_row@d_row,w
  4008  054F  3E06               	addlw	6
  4009  0550  0084               	movwf	4
  4010  0551  120A  158A  2000  120A  118A  	fcall	stringdir
  4011  0556  0577               	andwf	data_to_row@mask,w
  4012  0557  00A0               	movwf	??_data_to_row
  4013  0558  3005               	movlw	5
  4014  0559                     u2805:	
  4015  0559  1003               	clrc
  4016  055A  0DA0               	rlf	??_data_to_row,f
  4017  055B  3EFF               	addlw	-1
  4018  055C  1D03               	skipz
  4019  055D  2D59               	goto	u2805
  4020  055E  0878               	movf	data_to_row@d_row,w
  4021  055F  3E05               	addlw	5
  4022  0560  0084               	movwf	4
  4023  0561  120A  158A  2000  120A  118A  	fcall	stringdir
  4024  0566  0577               	andwf	data_to_row@mask,w
  4025  0567  00A1               	movwf	??_data_to_row+1
  4026  0568  3003               	movlw	3
  4027  0569                     u2815:	
  4028  0569  1003               	clrc
  4029  056A  0DA1               	rlf	??_data_to_row+1,f
  4030  056B  3EFF               	addlw	-1
  4031  056C  1D03               	skipz
  4032  056D  2D69               	goto	u2815
  4033  056E  1003               	clrc
  4034  056F  0D21               	rlf	??_data_to_row+1,w
  4035  0570  0720               	addwf	??_data_to_row,w
  4036  0571  00A2               	movwf	??_data_to_row+2
  4037  0572  0878               	movf	data_to_row@d_row,w
  4038  0573  3E04               	addlw	4
  4039  0574  0084               	movwf	4
  4040  0575  120A  158A  2000  120A  118A  	fcall	stringdir
  4041  057A  0577               	andwf	data_to_row@mask,w
  4042  057B  00A3               	movwf	??_data_to_row+3
  4043  057C  3002               	movlw	2
  4044  057D                     u2825:	
  4045  057D  1003               	clrc
  4046  057E  0DA3               	rlf	??_data_to_row+3,f
  4047  057F  3EFF               	addlw	-1
  4048  0580  1D03               	skipz
  4049  0581  2D7D               	goto	u2825
  4050  0582  1003               	clrc
  4051  0583  0D23               	rlf	??_data_to_row+3,w
  4052  0584  0722               	addwf	??_data_to_row+2,w
  4053  0585  00A4               	movwf	??_data_to_row+4
  4054  0586  0878               	movf	data_to_row@d_row,w
  4055  0587  3E03               	addlw	3
  4056  0588  0084               	movwf	4
  4057  0589  120A  158A  2000  120A  118A  	fcall	stringdir
  4058  058E  0577               	andwf	data_to_row@mask,w
  4059  058F  00A5               	movwf	??_data_to_row+5
  4060  0590  3001               	movlw	1
  4061  0591                     u2835:	
  4062  0591  1003               	clrc
  4063  0592  0DA5               	rlf	??_data_to_row+5,f
  4064  0593  3EFF               	addlw	-1
  4065  0594  1D03               	skipz
  4066  0595  2D91               	goto	u2835
  4067  0596  1003               	clrc
  4068  0597  0D25               	rlf	??_data_to_row+5,w
  4069  0598  0724               	addwf	??_data_to_row+4,w
  4070  0599  00A6               	movwf	??_data_to_row+6
  4071  059A  0878               	movf	data_to_row@d_row,w
  4072  059B  3E02               	addlw	2
  4073  059C  0084               	movwf	4
  4074  059D  120A  158A  2000  120A  118A  	fcall	stringdir
  4075  05A2  0577               	andwf	data_to_row@mask,w
  4076  05A3  00A7               	movwf	??_data_to_row+7
  4077  05A4  0727               	addwf	??_data_to_row+7,w
  4078  05A5  0726               	addwf	??_data_to_row+6,w
  4079  05A6  00A8               	movwf	??_data_to_row+8
  4080  05A7  0878               	movf	data_to_row@d_row,w
  4081  05A8  3E01               	addlw	1
  4082  05A9  0084               	movwf	4
  4083  05AA  120A  158A  2000  120A  118A  	fcall	stringdir
  4084  05AF  0577               	andwf	data_to_row@mask,w
  4085  05B0  0728               	addwf	??_data_to_row+8,w
  4086  05B1  00A9               	movwf	??_data_to_row+9
  4087  05B2  0878               	movf	data_to_row@d_row,w
  4088  05B3  0084               	movwf	4
  4089  05B4  120A  158A  2000  120A  118A  	fcall	stringdir
  4090  05B9  0577               	andwf	data_to_row@mask,w
  4091  05BA  00AA               	movwf	??_data_to_row+10
  4092  05BB  1003               	clrc
  4093  05BC  0C2A               	rrf	??_data_to_row+10,w
  4094  05BD  0729               	addwf	??_data_to_row+9,w
  4095  05BE  00AB               	movwf	??_data_to_row+11
  4096  05BF  082B               	movf	??_data_to_row+11,w
  4097  05C0  00AD               	movwf	_line1
  4098                           
  4099                           ;led_matrix_ds18b20.c: 142: d_column = line3;
  4100  05C1  082F               	movf	_line3,w
  4101  05C2  00A0               	movwf	??_data_to_row
  4102  05C3  01A1               	clrf	??_data_to_row+1
  4103  05C4  01A2               	clrf	??_data_to_row+2
  4104  05C5  0820               	movf	??_data_to_row,w
  4105  05C6  00FB               	movwf	_d_column
  4106  05C7  0821               	movf	??_data_to_row+1,w
  4107  05C8  00FC               	movwf	_d_column+1
  4108  05C9  0822               	movf	??_data_to_row+2,w
  4109  05CA  00FD               	movwf	_d_column+2
  4110                           
  4111                           ;led_matrix_ds18b20.c: 143: d_column = (d_column << 8) + line2;
  4112  05CB  082E               	movf	_line2,w
  4113  05CC  00A0               	movwf	??_data_to_row
  4114  05CD  01A1               	clrf	??_data_to_row+1
  4115  05CE  01A2               	clrf	??_data_to_row+2
  4116  05CF  087B               	movf	_d_column,w
  4117  05D0  00A3               	movwf	??_data_to_row+3
  4118  05D1  087C               	movf	_d_column+1,w
  4119  05D2  00A4               	movwf	??_data_to_row+4
  4120  05D3  087D               	movf	_d_column+2,w
  4121  05D4  00A5               	movwf	??_data_to_row+5
  4122  05D5  3008               	movlw	8
  4123  05D6                     u2845:	
  4124  05D6  1003               	clrc
  4125  05D7  0DA3               	rlf	??_data_to_row+3,f
  4126  05D8  0DA4               	rlf	??_data_to_row+4,f
  4127  05D9  0DA5               	rlf	??_data_to_row+5,f
  4128  05DA  3EFF               	addlw	-1
  4129  05DB  1D03               	skipz
  4130  05DC  2DD6               	goto	u2845
  4131  05DD  0823               	movf	??_data_to_row+3,w
  4132  05DE  07A0               	addwf	??_data_to_row,f
  4133  05DF  0824               	movf	??_data_to_row+4,w
  4134  05E0  1803               	skipnc
  4135  05E1  0F24               	incfsz	??_data_to_row+4,w
  4136  05E2  2DE4               	goto	u2851
  4137  05E3  2DE5               	goto	u2852
  4138  05E4                     u2851:	
  4139  05E4  07A1               	addwf	??_data_to_row+1,f
  4140  05E5                     u2852:	
  4141  05E5  0825               	movf	??_data_to_row+5,w
  4142  05E6  1803               	skipnc
  4143  05E7  0F25               	incfsz	??_data_to_row+5,w
  4144  05E8  2DEA               	goto	u2853
  4145  05E9  2DEB               	goto	u2854
  4146  05EA                     u2853:	
  4147  05EA  07A2               	addwf	??_data_to_row+2,f
  4148  05EB                     u2854:	
  4149  05EB  0820               	movf	??_data_to_row,w
  4150  05EC  00FB               	movwf	_d_column
  4151  05ED  0821               	movf	??_data_to_row+1,w
  4152  05EE  00FC               	movwf	_d_column+1
  4153  05EF  0822               	movf	??_data_to_row+2,w
  4154  05F0  00FD               	movwf	_d_column+2
  4155                           
  4156                           ;led_matrix_ds18b20.c: 144: d_column = (d_column << 8) + line1;
  4157  05F1  082D               	movf	_line1,w
  4158  05F2  00A0               	movwf	??_data_to_row
  4159  05F3  01A1               	clrf	??_data_to_row+1
  4160  05F4  01A2               	clrf	??_data_to_row+2
  4161  05F5  087B               	movf	_d_column,w
  4162  05F6  00A3               	movwf	??_data_to_row+3
  4163  05F7  087C               	movf	_d_column+1,w
  4164  05F8  00A4               	movwf	??_data_to_row+4
  4165  05F9  087D               	movf	_d_column+2,w
  4166  05FA  00A5               	movwf	??_data_to_row+5
  4167  05FB  3008               	movlw	8
  4168  05FC                     u2865:	
  4169  05FC  1003               	clrc
  4170  05FD  0DA3               	rlf	??_data_to_row+3,f
  4171  05FE  0DA4               	rlf	??_data_to_row+4,f
  4172  05FF  0DA5               	rlf	??_data_to_row+5,f
  4173  0600  3EFF               	addlw	-1
  4174  0601  1D03               	skipz
  4175  0602  2DFC               	goto	u2865
  4176  0603  0823               	movf	??_data_to_row+3,w
  4177  0604  07A0               	addwf	??_data_to_row,f
  4178  0605  0824               	movf	??_data_to_row+4,w
  4179  0606  1803               	skipnc
  4180  0607  0F24               	incfsz	??_data_to_row+4,w
  4181  0608  2E0A               	goto	u2871
  4182  0609  2E0B               	goto	u2872
  4183  060A                     u2871:	
  4184  060A  07A1               	addwf	??_data_to_row+1,f
  4185  060B                     u2872:	
  4186  060B  0825               	movf	??_data_to_row+5,w
  4187  060C  1803               	skipnc
  4188  060D  0F25               	incfsz	??_data_to_row+5,w
  4189  060E  2E10               	goto	u2873
  4190  060F  2E11               	goto	u2874
  4191  0610                     u2873:	
  4192  0610  07A2               	addwf	??_data_to_row+2,f
  4193  0611                     u2874:	
  4194  0611  0820               	movf	??_data_to_row,w
  4195  0612  00FB               	movwf	_d_column
  4196  0613  0821               	movf	??_data_to_row+1,w
  4197  0614  00FC               	movwf	_d_column+1
  4198  0615  0822               	movf	??_data_to_row+2,w
  4199  0616  00FD               	movwf	_d_column+2
  4200                           
  4201                           ;led_matrix_ds18b20.c: 145: data_to_column(d_column);
  4202  0617  087B               	movf	_d_column,w
  4203  0618  00F0               	movwf	data_to_column@d_col
  4204  0619  087C               	movf	_d_column+1,w
  4205  061A  00F1               	movwf	data_to_column@d_col+1
  4206  061B  087D               	movf	_d_column+2,w
  4207  061C  00F2               	movwf	data_to_column@d_col+2
  4208  061D  160A  118A  27A5  120A  118A  	fcall	_data_to_column
  4209                           
  4210                           ;led_matrix_ds18b20.c: 147: mask = 0x01;
  4211  0622  01F7               	clrf	data_to_row@mask
  4212  0623  0AF7               	incf	data_to_row@mask,f
  4213                           
  4214                           ;led_matrix_ds18b20.c: 148: line3 = ((d_row[20] & mask) << 6) + ((d_row[19] & mask) << 5
      +                          ) + ((d_row[18] & mask) << 4) +
  4215                           ;led_matrix_ds18b20.c: 149: ((d_row[17] & mask) << 3) + ((d_row[16] & mask) << 2) + ((d_
      +                          row[15] & mask) << 1) + (d_row[14] & mask);
  4216  0624  0878               	movf	data_to_row@d_row,w
  4217  0625  3E14               	addlw	20
  4218  0626  0084               	movwf	4
  4219  0627  120A  158A  2000  120A  118A  	fcall	stringdir
  4220  062C  0577               	andwf	data_to_row@mask,w
  4221  062D  1283               	bcf	3,5	;RP0=0, select bank0
  4222  062E  1303               	bcf	3,6	;RP1=0, select bank0
  4223  062F  00A0               	movwf	??_data_to_row
  4224  0630  3006               	movlw	6
  4225  0631                     u2885:	
  4226  0631  1003               	clrc
  4227  0632  0DA0               	rlf	??_data_to_row,f
  4228  0633  3EFF               	addlw	-1
  4229  0634  1D03               	skipz
  4230  0635  2E31               	goto	u2885
  4231  0636  0878               	movf	data_to_row@d_row,w
  4232  0637  3E13               	addlw	19
  4233  0638  0084               	movwf	4
  4234  0639  120A  158A  2000  120A  118A  	fcall	stringdir
  4235  063E  0577               	andwf	data_to_row@mask,w
  4236  063F  00A1               	movwf	??_data_to_row+1
  4237  0640  3004               	movlw	4
  4238  0641                     u2895:	
  4239  0641  1003               	clrc
  4240  0642  0DA1               	rlf	??_data_to_row+1,f
  4241  0643  3EFF               	addlw	-1
  4242  0644  1D03               	skipz
  4243  0645  2E41               	goto	u2895
  4244  0646  1003               	clrc
  4245  0647  0D21               	rlf	??_data_to_row+1,w
  4246  0648  0720               	addwf	??_data_to_row,w
  4247  0649  00A2               	movwf	??_data_to_row+2
  4248  064A  0878               	movf	data_to_row@d_row,w
  4249  064B  3E12               	addlw	18
  4250  064C  0084               	movwf	4
  4251  064D  120A  158A  2000  120A  118A  	fcall	stringdir
  4252  0652  0577               	andwf	data_to_row@mask,w
  4253  0653  00A3               	movwf	??_data_to_row+3
  4254  0654  3003               	movlw	3
  4255  0655                     u2905:	
  4256  0655  1003               	clrc
  4257  0656  0DA3               	rlf	??_data_to_row+3,f
  4258  0657  3EFF               	addlw	-1
  4259  0658  1D03               	skipz
  4260  0659  2E55               	goto	u2905
  4261  065A  1003               	clrc
  4262  065B  0D23               	rlf	??_data_to_row+3,w
  4263  065C  0722               	addwf	??_data_to_row+2,w
  4264  065D  00A4               	movwf	??_data_to_row+4
  4265  065E  0878               	movf	data_to_row@d_row,w
  4266  065F  3E11               	addlw	17
  4267  0660  0084               	movwf	4
  4268  0661  120A  158A  2000  120A  118A  	fcall	stringdir
  4269  0666  0577               	andwf	data_to_row@mask,w
  4270  0667  00A5               	movwf	??_data_to_row+5
  4271  0668  3002               	movlw	2
  4272  0669                     u2915:	
  4273  0669  1003               	clrc
  4274  066A  0DA5               	rlf	??_data_to_row+5,f
  4275  066B  3EFF               	addlw	-1
  4276  066C  1D03               	skipz
  4277  066D  2E69               	goto	u2915
  4278  066E  1003               	clrc
  4279  066F  0D25               	rlf	??_data_to_row+5,w
  4280  0670  0724               	addwf	??_data_to_row+4,w
  4281  0671  00A6               	movwf	??_data_to_row+6
  4282  0672  0878               	movf	data_to_row@d_row,w
  4283  0673  3E10               	addlw	16
  4284  0674  0084               	movwf	4
  4285  0675  120A  158A  2000  120A  118A  	fcall	stringdir
  4286  067A  0577               	andwf	data_to_row@mask,w
  4287  067B  00A7               	movwf	??_data_to_row+7
  4288  067C  3001               	movlw	1
  4289  067D                     u2925:	
  4290  067D  1003               	clrc
  4291  067E  0DA7               	rlf	??_data_to_row+7,f
  4292  067F  3EFF               	addlw	-1
  4293  0680  1D03               	skipz
  4294  0681  2E7D               	goto	u2925
  4295  0682  1003               	clrc
  4296  0683  0D27               	rlf	??_data_to_row+7,w
  4297  0684  0726               	addwf	??_data_to_row+6,w
  4298  0685  00A8               	movwf	??_data_to_row+8
  4299  0686  0878               	movf	data_to_row@d_row,w
  4300  0687  3E0F               	addlw	15
  4301  0688  0084               	movwf	4
  4302  0689  120A  158A  2000  120A  118A  	fcall	stringdir
  4303  068E  0577               	andwf	data_to_row@mask,w
  4304  068F  00A9               	movwf	??_data_to_row+9
  4305  0690  0729               	addwf	??_data_to_row+9,w
  4306  0691  0728               	addwf	??_data_to_row+8,w
  4307  0692  00AA               	movwf	??_data_to_row+10
  4308  0693  0878               	movf	data_to_row@d_row,w
  4309  0694  3E0E               	addlw	14
  4310  0695  0084               	movwf	4
  4311  0696  120A  158A  2000  120A  118A  	fcall	stringdir
  4312  069B  0577               	andwf	data_to_row@mask,w
  4313  069C  072A               	addwf	??_data_to_row+10,w
  4314  069D  00AB               	movwf	??_data_to_row+11
  4315  069E  082B               	movf	??_data_to_row+11,w
  4316  069F  00AF               	movwf	_line3
  4317                           
  4318                           ;led_matrix_ds18b20.c: 150: line2 = ((d_row[13] & mask) << 6) + ((d_row[12] & mask) << 5
      +                          ) + ((d_row[11] & mask) << 4) +
  4319                           ;led_matrix_ds18b20.c: 151: ((d_row[10] & mask) << 3) + ((d_row[9] & mask) << 2) + ((d_r
      +                          ow[8] & mask) << 1) + (d_row[7] & mask);
  4320  06A0  0878               	movf	data_to_row@d_row,w
  4321  06A1  3E0D               	addlw	13
  4322  06A2  0084               	movwf	4
  4323  06A3  120A  158A  2000  120A  118A  	fcall	stringdir
  4324  06A8  0577               	andwf	data_to_row@mask,w
  4325  06A9  00A0               	movwf	??_data_to_row
  4326  06AA  3006               	movlw	6
  4327  06AB                     u2935:	
  4328  06AB  1003               	clrc
  4329  06AC  0DA0               	rlf	??_data_to_row,f
  4330  06AD  3EFF               	addlw	-1
  4331  06AE  1D03               	skipz
  4332  06AF  2EAB               	goto	u2935
  4333  06B0  0878               	movf	data_to_row@d_row,w
  4334  06B1  3E0C               	addlw	12
  4335  06B2  0084               	movwf	4
  4336  06B3  120A  158A  2000  120A  118A  	fcall	stringdir
  4337  06B8  0577               	andwf	data_to_row@mask,w
  4338  06B9  00A1               	movwf	??_data_to_row+1
  4339  06BA  3004               	movlw	4
  4340  06BB                     u2945:	
  4341  06BB  1003               	clrc
  4342  06BC  0DA1               	rlf	??_data_to_row+1,f
  4343  06BD  3EFF               	addlw	-1
  4344  06BE  1D03               	skipz
  4345  06BF  2EBB               	goto	u2945
  4346  06C0  1003               	clrc
  4347  06C1  0D21               	rlf	??_data_to_row+1,w
  4348  06C2  0720               	addwf	??_data_to_row,w
  4349  06C3  00A2               	movwf	??_data_to_row+2
  4350  06C4  0878               	movf	data_to_row@d_row,w
  4351  06C5  3E0B               	addlw	11
  4352  06C6  0084               	movwf	4
  4353  06C7  120A  158A  2000  120A  118A  	fcall	stringdir
  4354  06CC  0577               	andwf	data_to_row@mask,w
  4355  06CD  00A3               	movwf	??_data_to_row+3
  4356  06CE  3003               	movlw	3
  4357  06CF                     u2955:	
  4358  06CF  1003               	clrc
  4359  06D0  0DA3               	rlf	??_data_to_row+3,f
  4360  06D1  3EFF               	addlw	-1
  4361  06D2  1D03               	skipz
  4362  06D3  2ECF               	goto	u2955
  4363  06D4  1003               	clrc
  4364  06D5  0D23               	rlf	??_data_to_row+3,w
  4365  06D6  0722               	addwf	??_data_to_row+2,w
  4366  06D7  00A4               	movwf	??_data_to_row+4
  4367  06D8  0878               	movf	data_to_row@d_row,w
  4368  06D9  3E0A               	addlw	10
  4369  06DA  0084               	movwf	4
  4370  06DB  120A  158A  2000  120A  118A  	fcall	stringdir
  4371  06E0  0577               	andwf	data_to_row@mask,w
  4372  06E1  00A5               	movwf	??_data_to_row+5
  4373  06E2  3002               	movlw	2
  4374  06E3                     u2965:	
  4375  06E3  1003               	clrc
  4376  06E4  0DA5               	rlf	??_data_to_row+5,f
  4377  06E5  3EFF               	addlw	-1
  4378  06E6  1D03               	skipz
  4379  06E7  2EE3               	goto	u2965
  4380  06E8  1003               	clrc
  4381  06E9  0D25               	rlf	??_data_to_row+5,w
  4382  06EA  0724               	addwf	??_data_to_row+4,w
  4383  06EB  00A6               	movwf	??_data_to_row+6
  4384  06EC  0878               	movf	data_to_row@d_row,w
  4385  06ED  3E09               	addlw	9
  4386  06EE  0084               	movwf	4
  4387  06EF  120A  158A  2000  120A  118A  	fcall	stringdir
  4388  06F4  0577               	andwf	data_to_row@mask,w
  4389  06F5  00A7               	movwf	??_data_to_row+7
  4390  06F6  3001               	movlw	1
  4391  06F7                     u2975:	
  4392  06F7  1003               	clrc
  4393  06F8  0DA7               	rlf	??_data_to_row+7,f
  4394  06F9  3EFF               	addlw	-1
  4395  06FA  1D03               	skipz
  4396  06FB  2EF7               	goto	u2975
  4397  06FC  1003               	clrc
  4398  06FD  0D27               	rlf	??_data_to_row+7,w
  4399  06FE  0726               	addwf	??_data_to_row+6,w
  4400  06FF  00A8               	movwf	??_data_to_row+8
  4401  0700  0878               	movf	data_to_row@d_row,w
  4402  0701  3E08               	addlw	8
  4403  0702  0084               	movwf	4
  4404  0703  120A  158A  2000  120A  118A  	fcall	stringdir
  4405  0708  0577               	andwf	data_to_row@mask,w
  4406  0709  00A9               	movwf	??_data_to_row+9
  4407  070A  0729               	addwf	??_data_to_row+9,w
  4408  070B  0728               	addwf	??_data_to_row+8,w
  4409  070C  00AA               	movwf	??_data_to_row+10
  4410  070D  0878               	movf	data_to_row@d_row,w
  4411  070E  3E07               	addlw	7
  4412  070F  0084               	movwf	4
  4413  0710  120A  158A  2000  120A  118A  	fcall	stringdir
  4414  0715  0577               	andwf	data_to_row@mask,w
  4415  0716  072A               	addwf	??_data_to_row+10,w
  4416  0717  00AB               	movwf	??_data_to_row+11
  4417  0718  082B               	movf	??_data_to_row+11,w
  4418  0719  00AE               	movwf	_line2
  4419                           
  4420                           ;led_matrix_ds18b20.c: 152: line1 = ((d_row[6] & mask) << 6) + ((d_row[5] & mask) << 5) 
      +                          + ((d_row[4] & mask) << 4) +
  4421                           ;led_matrix_ds18b20.c: 153: ((d_row[3] & mask) << 3) + ((d_row[2] & mask) << 2) + ((d_ro
      +                          w[1] & mask) << 1) + (d_row[0] & mask);
  4422  071A  0878               	movf	data_to_row@d_row,w
  4423  071B  3E06               	addlw	6
  4424  071C  0084               	movwf	4
  4425  071D  120A  158A  2000  120A  118A  	fcall	stringdir
  4426  0722  0577               	andwf	data_to_row@mask,w
  4427  0723  00A0               	movwf	??_data_to_row
  4428  0724  3006               	movlw	6
  4429  0725                     u2985:	
  4430  0725  1003               	clrc
  4431  0726  0DA0               	rlf	??_data_to_row,f
  4432  0727  3EFF               	addlw	-1
  4433  0728  1D03               	skipz
  4434  0729  2F25               	goto	u2985
  4435  072A  0878               	movf	data_to_row@d_row,w
  4436  072B  3E05               	addlw	5
  4437  072C  0084               	movwf	4
  4438  072D  120A  158A  2000  120A  118A  	fcall	stringdir
  4439  0732  0577               	andwf	data_to_row@mask,w
  4440  0733  00A1               	movwf	??_data_to_row+1
  4441  0734  3004               	movlw	4
  4442  0735                     u2995:	
  4443  0735  1003               	clrc
  4444  0736  0DA1               	rlf	??_data_to_row+1,f
  4445  0737  3EFF               	addlw	-1
  4446  0738  1D03               	skipz
  4447  0739  2F35               	goto	u2995
  4448  073A  1003               	clrc
  4449  073B  0D21               	rlf	??_data_to_row+1,w
  4450  073C  0720               	addwf	??_data_to_row,w
  4451  073D  00A2               	movwf	??_data_to_row+2
  4452  073E  0878               	movf	data_to_row@d_row,w
  4453  073F  3E04               	addlw	4
  4454  0740  0084               	movwf	4
  4455  0741  120A  158A  2000  120A  118A  	fcall	stringdir
  4456  0746  0577               	andwf	data_to_row@mask,w
  4457  0747  00A3               	movwf	??_data_to_row+3
  4458  0748  3003               	movlw	3
  4459  0749                     u3005:	
  4460  0749  1003               	clrc
  4461  074A  0DA3               	rlf	??_data_to_row+3,f
  4462  074B  3EFF               	addlw	-1
  4463  074C  1D03               	skipz
  4464  074D  2F49               	goto	u3005
  4465  074E  1003               	clrc
  4466  074F  0D23               	rlf	??_data_to_row+3,w
  4467  0750  0722               	addwf	??_data_to_row+2,w
  4468  0751  00A4               	movwf	??_data_to_row+4
  4469  0752  0878               	movf	data_to_row@d_row,w
  4470  0753  3E03               	addlw	3
  4471  0754  0084               	movwf	4
  4472  0755  120A  158A  2000  120A  118A  	fcall	stringdir
  4473  075A  0577               	andwf	data_to_row@mask,w
  4474  075B  00A5               	movwf	??_data_to_row+5
  4475  075C  3002               	movlw	2
  4476  075D                     u3015:	
  4477  075D  1003               	clrc
  4478  075E  0DA5               	rlf	??_data_to_row+5,f
  4479  075F  3EFF               	addlw	-1
  4480  0760  1D03               	skipz
  4481  0761  2F5D               	goto	u3015
  4482  0762  1003               	clrc
  4483  0763  0D25               	rlf	??_data_to_row+5,w
  4484  0764  0724               	addwf	??_data_to_row+4,w
  4485  0765  00A6               	movwf	??_data_to_row+6
  4486  0766  0878               	movf	data_to_row@d_row,w
  4487  0767  3E02               	addlw	2
  4488  0768  0084               	movwf	4
  4489  0769  120A  158A  2000  120A  118A  	fcall	stringdir
  4490  076E  0577               	andwf	data_to_row@mask,w
  4491  076F  00A7               	movwf	??_data_to_row+7
  4492  0770  3001               	movlw	1
  4493  0771                     u3025:	
  4494  0771  1003               	clrc
  4495  0772  0DA7               	rlf	??_data_to_row+7,f
  4496  0773  3EFF               	addlw	-1
  4497  0774  1D03               	skipz
  4498  0775  2F71               	goto	u3025
  4499  0776  1003               	clrc
  4500  0777  0D27               	rlf	??_data_to_row+7,w
  4501  0778  0726               	addwf	??_data_to_row+6,w
  4502  0779  00A8               	movwf	??_data_to_row+8
  4503  077A  0878               	movf	data_to_row@d_row,w
  4504  077B  3E01               	addlw	1
  4505  077C  0084               	movwf	4
  4506  077D  120A  158A  2000  120A  118A  	fcall	stringdir
  4507  0782  0577               	andwf	data_to_row@mask,w
  4508  0783  00A9               	movwf	??_data_to_row+9
  4509  0784  0729               	addwf	??_data_to_row+9,w
  4510  0785  0728               	addwf	??_data_to_row+8,w
  4511  0786  00AA               	movwf	??_data_to_row+10
  4512  0787  0878               	movf	data_to_row@d_row,w
  4513  0788  0084               	movwf	4
  4514  0789  120A  158A  2000  120A  118A  	fcall	stringdir
  4515  078E  0577               	andwf	data_to_row@mask,w
  4516  078F  072A               	addwf	??_data_to_row+10,w
  4517  0790  00AB               	movwf	??_data_to_row+11
  4518  0791  082B               	movf	??_data_to_row+11,w
  4519  0792  00AD               	movwf	_line1
  4520                           
  4521                           ;led_matrix_ds18b20.c: 154: d_column = line3;
  4522  0793  082F               	movf	_line3,w
  4523  0794  00A0               	movwf	??_data_to_row
  4524  0795  01A1               	clrf	??_data_to_row+1
  4525  0796  01A2               	clrf	??_data_to_row+2
  4526  0797  0820               	movf	??_data_to_row,w
  4527  0798  00FB               	movwf	_d_column
  4528  0799  0821               	movf	??_data_to_row+1,w
  4529  079A  00FC               	movwf	_d_column+1
  4530  079B  0822               	movf	??_data_to_row+2,w
  4531  079C  00FD               	movwf	_d_column+2
  4532                           
  4533                           ;led_matrix_ds18b20.c: 155: d_column = (d_column << 8) + line2;
  4534  079D  082E               	movf	_line2,w
  4535  079E  00A0               	movwf	??_data_to_row
  4536  079F  01A1               	clrf	??_data_to_row+1
  4537  07A0  01A2               	clrf	??_data_to_row+2
  4538  07A1  087B               	movf	_d_column,w
  4539  07A2  00A3               	movwf	??_data_to_row+3
  4540  07A3  087C               	movf	_d_column+1,w
  4541  07A4  00A4               	movwf	??_data_to_row+4
  4542  07A5  087D               	movf	_d_column+2,w
  4543  07A6  00A5               	movwf	??_data_to_row+5
  4544  07A7  3008               	movlw	8
  4545  07A8                     u3035:	
  4546  07A8  1003               	clrc
  4547  07A9  0DA3               	rlf	??_data_to_row+3,f
  4548  07AA  0DA4               	rlf	??_data_to_row+4,f
  4549  07AB  0DA5               	rlf	??_data_to_row+5,f
  4550  07AC  3EFF               	addlw	-1
  4551  07AD  1D03               	skipz
  4552  07AE  2FA8               	goto	u3035
  4553  07AF  0823               	movf	??_data_to_row+3,w
  4554  07B0  07A0               	addwf	??_data_to_row,f
  4555  07B1  0824               	movf	??_data_to_row+4,w
  4556  07B2  1803               	skipnc
  4557  07B3  0F24               	incfsz	??_data_to_row+4,w
  4558  07B4  2FB6               	goto	u3041
  4559  07B5  2FB7               	goto	u3042
  4560  07B6                     u3041:	
  4561  07B6  07A1               	addwf	??_data_to_row+1,f
  4562  07B7                     u3042:	
  4563  07B7  0825               	movf	??_data_to_row+5,w
  4564  07B8  1803               	skipnc
  4565  07B9  0F25               	incfsz	??_data_to_row+5,w
  4566  07BA  2FBC               	goto	u3043
  4567  07BB  2FBD               	goto	u3044
  4568  07BC                     u3043:	
  4569  07BC  07A2               	addwf	??_data_to_row+2,f
  4570  07BD                     u3044:	
  4571  07BD  0820               	movf	??_data_to_row,w
  4572  07BE  00FB               	movwf	_d_column
  4573  07BF  0821               	movf	??_data_to_row+1,w
  4574  07C0  00FC               	movwf	_d_column+1
  4575  07C1  0822               	movf	??_data_to_row+2,w
  4576  07C2  00FD               	movwf	_d_column+2
  4577                           
  4578                           ;led_matrix_ds18b20.c: 156: d_column = (d_column << 8) + line1;
  4579  07C3  082D               	movf	_line1,w
  4580  07C4  00A0               	movwf	??_data_to_row
  4581  07C5  01A1               	clrf	??_data_to_row+1
  4582  07C6  01A2               	clrf	??_data_to_row+2
  4583  07C7  087B               	movf	_d_column,w
  4584  07C8  00A3               	movwf	??_data_to_row+3
  4585  07C9  087C               	movf	_d_column+1,w
  4586  07CA  00A4               	movwf	??_data_to_row+4
  4587  07CB  087D               	movf	_d_column+2,w
  4588  07CC  00A5               	movwf	??_data_to_row+5
  4589  07CD  3008               	movlw	8
  4590  07CE                     u3055:	
  4591  07CE  1003               	clrc
  4592  07CF  0DA3               	rlf	??_data_to_row+3,f
  4593  07D0  0DA4               	rlf	??_data_to_row+4,f
  4594  07D1  0DA5               	rlf	??_data_to_row+5,f
  4595  07D2  3EFF               	addlw	-1
  4596  07D3  1D03               	skipz
  4597  07D4  2FCE               	goto	u3055
  4598  07D5  0823               	movf	??_data_to_row+3,w
  4599  07D6  07A0               	addwf	??_data_to_row,f
  4600  07D7  0824               	movf	??_data_to_row+4,w
  4601  07D8  1803               	skipnc
  4602  07D9  0F24               	incfsz	??_data_to_row+4,w
  4603  07DA  2FDC               	goto	u3061
  4604  07DB  2FDD               	goto	u3062
  4605  07DC                     u3061:	
  4606  07DC  07A1               	addwf	??_data_to_row+1,f
  4607  07DD                     u3062:	
  4608  07DD  0825               	movf	??_data_to_row+5,w
  4609  07DE  1803               	skipnc
  4610  07DF  0F25               	incfsz	??_data_to_row+5,w
  4611  07E0  2FE2               	goto	u3063
  4612  07E1  2FE3               	goto	u3064
  4613  07E2                     u3063:	
  4614  07E2  07A2               	addwf	??_data_to_row+2,f
  4615  07E3                     u3064:	
  4616  07E3  0820               	movf	??_data_to_row,w
  4617  07E4  00FB               	movwf	_d_column
  4618  07E5  0821               	movf	??_data_to_row+1,w
  4619  07E6  00FC               	movwf	_d_column+1
  4620  07E7  0822               	movf	??_data_to_row+2,w
  4621  07E8  00FD               	movwf	_d_column+2
  4622                           
  4623                           ;led_matrix_ds18b20.c: 157: data_to_column(d_column);
  4624  07E9  087B               	movf	_d_column,w
  4625  07EA  00F0               	movwf	data_to_column@d_col
  4626  07EB  087C               	movf	_d_column+1,w
  4627  07EC  00F1               	movwf	data_to_column@d_col+1
  4628  07ED  087D               	movf	_d_column+2,w
  4629  07EE  00F2               	movwf	data_to_column@d_col+2
  4630  07EF  160A  118A  27A5   	fcall	_data_to_column
  4631                           
  4632                           ;led_matrix_ds18b20.c: 159: RD3 = 0;
  4633  07F2  1283               	bcf	3,5	;RP0=0, select bank0
  4634  07F3  1303               	bcf	3,6	;RP1=0, select bank0
  4635  07F4  1188               	bcf	8,3	;volatile
  4636  07F5  0008               	return
  4637  07F6                     __end_of_data_to_row:	


Data Sizes:
    Strings     0
    Constant    168
    Data        0
    BSS         6
    Persistent  0
    Stack       0

Auto Spaces:
    Space          Size  Autos    Used
    COMMON           14     11      14
    BANK0            80     13      16
    BANK1            80      0       0
    BANK3            96      0       0
    BANK2            96      0       0

Pointer List with Targets:

    data_to_row@d_row	PTR const unsigned char  size(1) Largest target is 21
		 -> d_row7(CODE[21]), d_row6(CODE[21]), d_row5(CODE[21]), d_row4(CODE[21]), 
		 -> d_row3(CODE[21]), d_row2(CODE[21]), d_row1(CODE[21]), d_row0(CODE[21]), 


Critical Paths under _main in COMMON

    _main->_write_line
    _write_line->_data_to_row
    _data_to_row->_data_to_column

Critical Paths under _main in BANK0

    _write_line->_data_to_row

Critical Paths under _main in BANK1

    None.

Critical Paths under _main in BANK3

    None.

Critical Paths under _main in BANK2

    None.

Call Graph Tables:

 ---------------------------------------------------------------------------------
 (Depth) Function   	        Calls       Base Space   Used Autos Params    Refs
 ---------------------------------------------------------------------------------
 (0) _main                                                 1     1      0    8183
                                             10 COMMON     1     1      0
                     _sys_initialize
                         _write_line
 ---------------------------------------------------------------------------------
 (1) _write_line                                           1     1      0    8182
                                              9 COMMON     1     1      0
                        _data_to_row
                           _next_row
                        _select_line
 ---------------------------------------------------------------------------------
 (2) _select_line                                          4     4      0      30
                                              0 COMMON     4     4      0
 ---------------------------------------------------------------------------------
 (2) _next_row                                             0     0      0       0
 ---------------------------------------------------------------------------------
 (2) _data_to_row                                         15    15      0    8130
                                              7 COMMON     2     2      0
                                              0 BANK0     13    13      0
                     _data_to_column
 ---------------------------------------------------------------------------------
 (3) _data_to_column                                       7     4      3     514
                                              0 COMMON     7     4      3
 ---------------------------------------------------------------------------------
 (1) _sys_initialize                                       2     2      0       0
                                              0 COMMON     2     2      0
                 _ds18b20_initialize
 ---------------------------------------------------------------------------------
 (2) _ds18b20_initialize                                   0     0      0       0
 ---------------------------------------------------------------------------------
 Estimated maximum stack depth 3
 ---------------------------------------------------------------------------------

 Call Graph Graphs:

 _main (ROOT)
   _sys_initialize
     _ds18b20_initialize
   _write_line
     _data_to_row
       _data_to_column
     _next_row
     _select_line

 Address spaces:
Name               Size   Autos  Total    Cost      Usage
BITCOMMON            E      0       0       0        0.0%
EEDATA             100      0       0       0        0.0%
NULL                 0      0       0       0        0.0%
CODE                 0      0       0       0        0.0%
COMMON               E      B       E       1      100.0%
BITSFR0              0      0       0       1        0.0%
SFR0                 0      0       0       1        0.0%
BITSFR1              0      0       0       2        0.0%
SFR1                 0      0       0       2        0.0%
STACK                0      0       0       2        0.0%
ABS                  0      0      1E       3        0.0%
BITBANK0            50      0       0       4        0.0%
BITSFR3              0      0       0       4        0.0%
SFR3                 0      0       0       4        0.0%
BANK0               50      D      10       5       20.0%
BITSFR2              0      0       0       5        0.0%
SFR2                 0      0       0       5        0.0%
BITBANK1            50      0       0       6        0.0%
BANK1               50      0       0       7        0.0%
BITBANK3            60      0       0       8        0.0%
BANK3               60      0       0       9        0.0%
BITBANK2            60      0       0      10        0.0%
BANK2               60      0       0      11        0.0%
DATA                 0      0      1E      12        0.0%


Microchip Technology PIC Macro Assembler V1.35 build -356382666 
Symbol Table                                                                                   Sun Nov 08 10:42:19 2015

                          pc 0002                  __CFG_CP$OFF 0000                           l44 17A9  
                         l46 17DA                           fsr 0004                  __CFG_LVP$ON 0000  
                        l705 0037                          l777 17C4                          l959 178C  
                        _RD2 0042                          _RD3 0043                          _RE2 004A  
                        _RD4 0044                          _RD5 0045                          _RD6 0046  
                        _RD7 0047                 __CFG_CPD$OFF 0000                          fsr0 0004  
               __CFG_IESO$ON 0000                         u2021 0F00                         u2005 0ED3  
                       u2022 0F01                         u2023 0F06                         u2015 0EF2  
                       u2024 0F07                         u2105 0B5B                         u2041 0F26  
                       u2042 0F27                         u2211 0FC0                         u2115 0B84  
                       u2043 0F2C                         u2035 0F18                         u2212 0FC1  
                       u2044 0F2D                         u3005 0749                         u2213 0FC6  
                       u2205 0FB2                         u2125 0B97                         u2214 0FC7  
                       u3015 075D                         u2231 0FE6                         u2135 0BAA  
                       u2055 0A5C                         u2232 0FE7                         u3041 07B6  
                       u3025 0771                         u2305 0D2D                         u2233 0FEC  
                       u2225 0FD8                         u2145 0BBD                         u2065 0A85  
                       u3042 07B7                         u2234 0FED                         u3107 17CC  
                       u3043 07BC                         u3035 07A8                         u2315 0D40  
                       u2155 0BD2                         u2075 0A98                         u1604 17E3  
                       u3044 07BD                         u3117 17D4                         u3061 07DC  
                       u2405 00F6                         u2325 0D55                         u2245 0E19  
                       u2165 0F5B                         u2085 0AAB                         u1550 17B8  
                       u3062 07DD                         u3127 17EB                         u3063 07E2  
                       u3055 07CE                         u2415 0106                         u2335 0055  
                       u2255 0E4F                         u2175 0F6E                         u2095 0ABE  
                       u1615 0C84                         u1535 001C                         u1560 17C1  
                       u3064 07E3                         u3137 17F9                         u2505 0224  
                       u2425 0140                         u2345 0068                         u2265 0E62  
                       u2185 0F81                         u1705 0A01                         u1625 0C94  
                       u3147 08CE                         u1555 17B4                         u2531 0263  
                       u2515 0236                         u2435 0153                         u2371 00A7  
                       u2355 007A                         u2275 0E75                         u2195 0F93  
                       u1715 0A14                         u1635 0CA7                         u2532 0264  
                       u2372 00A8                         u3157 08DF                         u2605 0325  
                       u2533 0269                         u2525 0255                         u2445 0168  
                       u2373 00AD                         u2365 0099                         u2285 0E8A  
                       u1805 09B6                         u1725 0A27                         u1645 0CBA  
                       u3077 002C                         u1590 17E0                         u2534 026A  
                       u2374 00AE                         u2711 0448                         u2615 0335  
                       u2551 0289                         u2455 0178                         u2391 00CD  
                       u2295 0D1A                         u1831 0B01                         u1815 0AD4  
                       u1735 0A3A                         u1655 0CCD                         u3087 0034  
                       u2712 0449                         u2552 028A                         u2392 00CE  
                       u1832 0B02                         u2713 044E                         u2705 043A  
                       u2625 0349                         u2553 028F                         u2545 027B  
                       u2465 01B2                         u2393 00D3                         u2385 00BF  
                       u1905 0C3D                         u1833 0B07                         u1825 0AF3  
                       u1745 0945                         u1665 0CE0                         u3097 0C6F  
                       u2714 044F                         u2554 0290                         u2394 00D4  
                       u1834 0B08                         u2635 0383                         u2475 01C5  
                       u1915 0D7E                         u1851 0B27                         u1755 095A  
                       u1675 09C9                         u1852 0B28                         u2805 0559  
                       u2725 0471                         u2645 0398                         u2565 02B2  
                       u2485 01DA                         u1925 0D91                         u1853 0B2D  
                       u1845 0B19                         u1765 096A                         u1685 09DE  
                       u1854 0B2E                         u2815 0569                         u2735 0481  
                       u2655 03A8                         u2575 02C2                         u2495 01EA  
                       u1935 0DA4                         u1775 097D                         u1695 09EE  
                       u2905 0655                         u2825 057D                         u2745 0495  
                       u2665 03BC                         u2585 02D6                         u1945 0DB7  
                       u1865 0BF1                         u1785 0990                         u2915 0669  
                       u2851 05E4                         u2835 0591                         u2755 04A9  
                       u2691 0422                         u2675 03F5                         u2595 0310  
                       u1955 0DCA                         u1875 0C04                         u1795 09A3  
                       u2852 05E5                         u2692 0423                         u2925 067D  
                       u2853 05EA                         u2845 05D6                         u2765 04E5  
                       u2693 0428                         u2685 0414                         u1965 0DF7  
                       u1885 0C17                         u2854 05EB                         u2694 0429  
                       u2935 06AB                         u2871 060A                         u2775 04F5  
                       u1975 0E9B                         u1895 0C2A                         u2872 060B  
                       u2945 06BB                         u2873 0610                         u2865 05FC  
                       u2785 0509                         u1985 0EAE                         u2874 0611  
                       u2955 06CF                         u2795 051D                         u1995 0EC1  
                       u2965 06E3                         u2885 0631                         u2975 06F7  
                       u2895 0641                         u2985 0725                         u2995 0735  
               __CFG_WRT$OFF 0000                __CFG_FCMEN$ON 0000                         _main 1786  
 __end_of_ds18b20_initialize 000E                         btemp 007E                __CFG_BOREN$ON 0000  
                       ltemp 007E                         start 0000                         ttemp 007E  
                       wtemp 007E                __CFG_MCLRE$ON 0000                        ?_main 0070  
              __CFG_WDTE$OFF 0000                        _PORTD 0008                        _PORTE 0009  
                      _TRISD 0088                        _TRISE 0089                 main@line_num 007A  
                      _line1 002D                        _line2 002E                        _line3 002F  
                      pclath 000A                        ltemp0 007E                        ltemp1 0082  
                      ltemp2 0086                        ltemp3 0080                        ttemp0 007E  
                      ttemp1 0081                        ttemp2 0084                        ttemp3 0087  
                      ttemp4 007F                        status 0003         __size_of_data_to_row FB8D  
                      wtemp0 007E                        wtemp1 0080                        wtemp2 0082  
                      wtemp3 0084                        wtemp4 0086                        wtemp5 0088  
                      wtemp6 007F           pnum$text4_split_10 0019           pnum$text4_split_11 001A  
         pnum$text4_split_12 001B              select_line@loop 0073              __initialization 07F6  
               __end_of_main 17A5       select_line@line_number 0072               _data_to_column 17A5  
                     ??_main 007A                 ?_select_line 0070             ??_sys_initialize 0070  
             __CFG_PWRTE$OFF 0000                       _d_row0 0806                       _d_row1 081B  
                     _d_row2 0830                       _d_row3 0845                       _d_row4 085A  
                     _d_row5 086F                       _d_row6 0884                       _d_row7 0899  
     __end_of_data_to_column 1800             __end_of_next_row 0018      __end_of__initialization 07FC  
             __pcstackCOMMON 0070              ?_data_to_column 0070                   __pbssBANK0 002D  
                 __pmaintext 1786           _ds18b20_initialize 0007          ?_ds18b20_initialize 0070  
                 __stringtab 0800         __size_of_select_line 002D         ??_ds18b20_initialize 0070  
                  ?_next_row 0070             data_to_row@d_row 0078                      __ptext1 08E5  
                    __ptext2 0018                      __ptext3 000E                      __ptext4 0C69  
                    __ptext5 17A5                      __ptext6 08C0                      __ptext7 0007  
      write_line@line_number 0079                ??_data_to_row 0020           data_to_column@loop 0076  
       end_of_initialization 07FC                   ??_next_row 0070                      psplit$0 C0010  
                    psplit$1 100011                      psplit$2 110012                      psplit$3 120013  
                    psplit$4 130014                      psplit$5 140015                      psplit$6 150016  
                    psplit$7 160017                      psplit$8 170018                      psplit$9 180019  
        __end_of_data_to_row 07F6             ??_data_to_column 0073               __end_of_d_row0 081B  
             __end_of_d_row1 0830               __end_of_d_row2 0845               __end_of_d_row3 085A  
             __end_of_d_row4 086F               __end_of_d_row5 0884               __end_of_d_row6 0899  
             __end_of_d_row7 08AE                   _write_line 08E5            pnum$text4_split_1 0010  
          pnum$text4_split_2 0011            pnum$text4_split_3 0012            pnum$text4_split_4 0013  
          pnum$text4_split_5 0014            pnum$text4_split_6 0015            pnum$text4_split_7 0016  
          pnum$text4_split_8 0017            pnum$text4_split_9 0018          start_initialization 07F6  
   __CFG_FOSC$INTRC_NOCLKOUT 0000      __size_of_sys_initialize 0025                  __pbssCOMMON 007B  
                  ___latbits 0002                __pcstackBANK0 0020                  _data_to_row 0C69  
          __size_of_next_row 000A                  ?_write_line 0070                    __pstrings 0800  
            data_to_row@mask 0077                ??_select_line 0070  __size_of_ds18b20_initialize 0007  
                __stringbase 0805          __size_of_write_line 005E          __end_of_select_line 0045  
             _sys_initialize 08C0           __end_of__stringtab 0806                     _d_column 007B  
          __CFG_BOR4V$BOR40V 0000                __size_of_main 001F                    pnum$text4 000C  
                   _next_row 000E       __end_of_sys_initialize 08E5          data_to_column@d_col 0070  
                _select_line 0018                 ?_data_to_row 0070                    stringcode 0800  
            ?_sys_initialize 0070                     psplit$10 19001A                     psplit$11 1A001B  
               ??_write_line 0079      __size_of_data_to_column 005B                     stringdir 0800  
                   stringtab 0800           __end_of_write_line 0943  
